 binding

 Timestamp is 5d2f9cd4 (Thu Jul 18 03:40:28 2019)

 Preferred load address is 0000000180000000

 Start         Length     Name                   Class
 0001:00000000 00019150H .text$mn                CODE
 0001:00019150 00000020H .text$mn$00             CODE
 0001:00019170 00000840H .text$x                 CODE
 0002:00000000 00000250H .idata$5                DATA
 0002:00000250 00000010H .00cfg                  DATA
 0002:00000260 00000008H .CRT$XCA                DATA
 0002:00000268 00000008H .CRT$XCU                DATA
 0002:00000270 00000008H .CRT$XCZ                DATA
 0002:00000278 00000008H .CRT$XIA                DATA
 0002:00000280 00000018H .CRT$XIC                DATA
 0002:00000298 00000008H .CRT$XIZ                DATA
 0002:000002a0 00000008H .CRT$XPA                DATA
 0002:000002a8 00000010H .CRT$XPX                DATA
 0002:000002b8 00000008H .CRT$XPXA               DATA
 0002:000002c0 00000008H .CRT$XPZ                DATA
 0002:000002c8 00000008H .CRT$XTA                DATA
 0002:000002d0 00000010H .CRT$XTZ                DATA
 0002:000002d8 00000000H .gfids$y                DATA
 0002:000002e0 00008d70H .rdata                  DATA
 0002:00009050 0000037cH .rdata$r                DATA
 0002:000093cc 000003b4H .rdata$zzzdbg           DATA
 0002:00009780 00000008H .rtc$IAA                DATA
 0002:00009788 00000008H .rtc$IZZ                DATA
 0002:00009790 00000008H .rtc$TAA                DATA
 0002:00009798 00000008H .rtc$TZZ                DATA
 0002:000097a0 00001f80H .xdata                  DATA
 0002:0000b720 0000033cH .xdata$x                DATA
 0002:0000ba5c 00000020H .didat$2                DATA
 0002:0000ba7c 00000024H .didat$3                DATA
 0002:0000baa0 00000130H .didat$4                DATA
 0002:0000bbd0 00000398H .didat$6                DATA
 0002:0000bf68 00000138H .didat$7                DATA
 0002:0000c0a0 00000054H .edata                  DATA
 0002:0000c0f4 00000014H .idata$2                DATA
 0002:0000c108 00000018H .idata$3                DATA
 0002:0000c120 00000250H .idata$4                DATA
 0002:0000c370 0000055eH .idata$6                DATA
 0003:00000000 00000a38H .data                   DATA
 0003:00000a38 000001f8H .data$r                 DATA
 0003:00000c30 00000130H .didat$5                DATA
 0003:00000d60 00001220H .bss                    DATA
 0004:00000000 00001698H .pdata                  DATA
 0005:00000000 00000060H .rsrc$01                DATA
 0005:00000060 00000180H .rsrc$02                DATA

  Address         Publics by Value              Rva+Base               Lib:Object

 0000:00000000       __guard_fids_count         0000000000000000     <absolute>
 0000:00000000       __hybrid_code_map          0000000000000000     <absolute>
 0000:00000000       __guard_iat_count          0000000000000000     <absolute>
 0000:00000000       __guard_longjmp_count      0000000000000000     <absolute>
 0000:00000000       __guard_longjmp_table      0000000000000000     <absolute>
 0000:00000000       __volatile_metadata        0000000000000000     <absolute>
 0000:00000000       __guard_iat_table          0000000000000000     <absolute>
 0000:00000000       __hybrid_code_map_count    0000000000000000     <absolute>
 0000:00000000       __enclave_config           0000000000000000     <absolute>
 0000:00000000       ___safe_se_handler_count   0000000000000000     <absolute>
 0000:00000000       ___safe_se_handler_table   0000000000000000     <absolute>
 0000:00000000       __guard_fids_table         0000000000000000     <absolute>
 0000:00000000       __hybrid_auxiliary_iat     0000000000000000     <absolute>
 0000:00000000       __dynamic_value_reloc_table 0000000000000000     <absolute>
 0000:00000100       __guard_flags              0000000000000100     <absolute>
 0000:00000000       __ImageBase                0000000180000000     <linker-defined>
 0001:00000000       ??0exception@stdext@@QEAA@AEBV01@@Z 0000000180001000 f i binding.obj
 0001:00000020       ?what@exception@stdext@@UEBAPEBDXZ 0000000180001020 f i binding.obj
 0001:00000040       _guard_check_icall_nop     0000000180001040 f i LIBCMT:guard_support.obj
 0001:00000040       ?_Doraise@exception@stdext@@MEBAXXZ 0000000180001040 f i binding.obj
 0001:00000050       ??_Eexception@stdext@@UEAAPEAXI@Z 0000000180001050 f i * CIL library *:* CIL module *
 0001:00000050       ??_Gexception@stdext@@UEAAPEAXI@Z 0000000180001050 f i binding.obj
 0001:00000080       __local_stdio_printf_options 0000000180001080 f i binding.obj
 0001:00000090       _snprintf_s                0000000180001090 f i binding.obj
 0001:00000100       ??BEnv@Napi@@QEBAPEAUnapi_env__@@XZ 0000000180001100 f i binding.obj
 0001:00000110       ??1Error@Napi@@UEAA@XZ     0000000180001110 f i binding.obj
 0001:000001a0       ?Type@Value@Napi@@QEBA?AW4napi_valuetype@@XZ 00000001800011a0 f i binding.obj
 0001:00000220       ?New@Number@Napi@@SA?AV12@PEAUnapi_env__@@N@Z 0000000180001220 f i binding.obj
 0001:000002b0       ??BString@Napi@@QEBA?AV?$basic_string@DU?$char_traits@D@std@@V?$allocator@D@2@@std@@XZ 00000001800012b0 f i binding.obj
 0001:00000450       ??AObject@Napi@@QEAA?AV?$PropertyLValue@V?$basic_string@DU?$char_traits@D@std@@V?$allocator@D@2@@std@@@01@PEBD@Z 0000000180001450 f i binding.obj
 0001:000004c0       ??1?$PropertyLValue@V?$basic_string@DU?$char_traits@D@std@@V?$allocator@D@2@@std@@@Object@Napi@@QEAA@XZ 00000001800014c0 f i binding.obj
 0001:00000520       ?New@Error@Napi@@SA?AV12@PEAUnapi_env__@@@Z 0000000180001520 f i binding.obj
 0001:00000720       ?New@Error@Napi@@SA?AV12@PEAUnapi_env__@@PEBD@Z 0000000180001720 f i binding.obj
 0001:00000870       ??_EError@Napi@@UEAAPEAXI@Z 0000000180001870 f i * CIL library *:* CIL module *
 0001:00000870       ??_GTypeError@Napi@@UEAAPEAXI@Z 0000000180001870 f i binding.obj
 0001:00000870       ??_ETypeError@Napi@@UEAAPEAXI@Z 0000000180001870 f i * CIL library *:* CIL module *
 0001:00000870       ??_GError@Napi@@UEAAPEAXI@Z 0000000180001870 f i binding.obj
 0001:000008b0       ??0Error@Napi@@QEAA@AEBV01@@Z 00000001800018b0 f i binding.obj
 0001:00000a30       ?Message@Error@Napi@@QEBAAEBV?$basic_string@DU?$char_traits@D@std@@V?$allocator@D@2@@std@@XZ 0000000180001a30 f i binding.obj
 0001:00000cd0       ?ThrowAsJavaScriptException@Error@Napi@@QEBAXXZ 0000000180001cd0 f i binding.obj
 0001:00000de0       ?what@Error@Napi@@UEBAPEBDXZ 0000000180001de0 f i binding.obj
 0001:00000e00       ?New@TypeError@Napi@@SA?AV12@PEAUnapi_env__@@PEBD@Z 0000000180001e00 f i binding.obj
 0001:00000f60       ??1TypeError@Napi@@UEAA@XZ 0000000180001f60 f i binding.obj
 0001:00000f70       ??0ObjectReference@Napi@@IEAA@AEBV01@@Z 0000000180001f70 f i binding.obj
 0001:000010b0       ??0CallbackInfo@Napi@@QEAA@PEAUnapi_env__@@PEAUnapi_callback_info__@@@Z 00000001800020b0 f i binding.obj
 0001:000011e0       ??1CallbackInfo@Napi@@QEAA@XZ 00000001800021e0 f i binding.obj
 0001:000011f0       ?Env@CallbackInfo@Napi@@QEBA?AV02@XZ 00000001800021f0 f i binding.obj
 0001:00001200       ??ACallbackInfo@Napi@@QEBA?BVValue@1@_K@Z 0000000180002200 f i binding.obj
 0001:000012d0       ??1HandleScope@Napi@@QEAA@XZ 00000001800022d0 f i binding.obj
 0001:000012e0       ??1EscapableHandleScope@Napi@@QEAA@XZ 00000001800022e0 f i binding.obj
 0001:000015a0       ??0TypeError@Napi@@QEAA@AEBV01@@Z 00000001800025a0 f i binding.obj
 0001:00002ee0       ?Init@@YA?AVObject@Napi@@VEnv@2@V12@@Z 0000000180003ee0 f   binding.obj
 0001:00005ab0       ??4?$PropertyLValue@V?$basic_string@DU?$char_traits@D@std@@V?$allocator@D@2@@std@@@Object@Napi@@QEAAAEAV012@AEBV012@@Z 0000000180006ab0 f i binding.obj
 0001:00005b00       ?__napi_Init@@YAPEAUnapi_value__@@PEAUnapi_env__@@PEAU1@@Z 0000000180006b00 f   binding.obj
 0001:00005b70       ?reserve@?$basic_string@DU?$char_traits@D@std@@V?$allocator@D@2@@std@@QEAAX_K@Z 0000000180006b70 f i binding.obj
 0001:00005d30       ??1?$basic_string@DU?$char_traits@D@std@@V?$allocator@D@2@@std@@QEAA@XZ 0000000180006d30 f i binding.obj
 0001:00005d90       ?assign@?$basic_string@DU?$char_traits@D@std@@V?$allocator@D@2@@std@@QEAAAEAV12@QEBD_K@Z 0000000180006d90 f i binding.obj
 0001:00005ee0       ??0?$PropertyLValue@V?$basic_string@DU?$char_traits@D@std@@V?$allocator@D@2@@std@@@Object@Napi@@AEAA@V12@V?$basic_string@DU?$char_traits@D@std@@V?$allocator@D@2@@std@@@Z 0000000180006ee0 f i binding.obj
 0001:00006060       ??0?$Reference@VObject@Napi@@@Napi@@IEAA@AEBV01@@Z 0000000180007060 f i binding.obj
 0001:000061a0       ??1?$Reference@VObject@Napi@@@Napi@@QEAA@XZ 00000001800071a0 f i binding.obj
 0001:000061d0       ?Reset@?$Reference@VObject@Napi@@@Napi@@QEAAXXZ 00000001800071d0 f i binding.obj
 0001:00006240       ??$WrapCallback@V<lambda_8c7377a71108815b2eee34f099f4cb99>@@@details@Napi@@YAPEAUnapi_value__@@V<lambda_8c7377a71108815b2eee34f099f4cb99>@@@Z 0000000180007240 f i binding.obj
 0001:00006290       ??$?4VNumber@Napi@@@?$PropertyLValue@V?$basic_string@DU?$char_traits@D@std@@V?$allocator@D@2@@std@@@Object@Napi@@QEAAAEAV012@VNumber@2@@Z 0000000180007290 f i binding.obj
 0001:00006290       ??$?4VFunction@Napi@@@?$PropertyLValue@V?$basic_string@DU?$char_traits@D@std@@V?$allocator@D@2@@std@@@Object@Napi@@QEAAAEAV012@VFunction@2@@Z 0000000180007290 f i binding.obj
 0001:00006290       ??$?4VValue@Napi@@@?$PropertyLValue@V?$basic_string@DU?$char_traits@D@std@@V?$allocator@D@2@@std@@@Object@Napi@@QEAAAEAV012@VValue@2@@Z 0000000180007290 f i binding.obj
 0001:00006290       ??$?4VObject@Napi@@@?$PropertyLValue@V?$basic_string@DU?$char_traits@D@std@@V?$allocator@D@2@@std@@@Object@Napi@@QEAAAEAV012@V12@@Z 0000000180007290 f i binding.obj
 0001:00006320       ??$New@P6A?AVValue@Napi@@AEBVCallbackInfo@2@@Z@Function@Napi@@SA?AV01@PEAUnapi_env__@@P6A?AVValue@1@AEBVCallbackInfo@1@@ZPEBDPEAX@Z 0000000180007320 f i binding.obj
 0001:000064a0       ??$New@P6AXAEBVCallbackInfo@Napi@@@Z@Function@Napi@@SA?AV01@PEAUnapi_env__@@P6AXAEBVCallbackInfo@1@@ZPEBDPEAX@Z 00000001800074a0 f i binding.obj
 0001:00006620       ??$_Reallocate_grow_by@V<lambda_e1befb086ad3257e3f042a63030725f7>@@_KD@?$basic_string@DU?$char_traits@D@std@@V?$allocator@D@2@@std@@QEAAAEAV01@_KV<lambda_e1befb086ad3257e3f042a63030725f7>@@_KD@Z 0000000180007620 f i binding.obj
 0001:00006790       ?Wrapper@?$CallbackData@P6AXAEBVCallbackInfo@Napi@@@ZX@details@Napi@@SAPEAUnapi_value__@@PEAUnapi_env__@@PEAUnapi_callback_info__@@@Z 0000000180007790 f i binding.obj
 0001:000067d0       ?Wrapper@?$CallbackData@P6A?AVValue@Napi@@AEBVCallbackInfo@2@@ZV12@@details@Napi@@SAPEAUnapi_value__@@PEAUnapi_env__@@PEAUnapi_callback_info__@@@Z 00000001800077d0 f i binding.obj
 0001:00006820       ?_Xlen@?$basic_string@DU?$char_traits@D@std@@V?$allocator@D@2@@std@@SAXXZ 0000000180007820 f i binding.obj
 0001:00006840       ??$WrapCallback@V<lambda_03ec0e3e2a4187754bc7c97d0c48b30a>@@@details@Napi@@YAPEAUnapi_value__@@V<lambda_03ec0e3e2a4187754bc7c97d0c48b30a>@@@Z 0000000180007840 f i binding.obj
 0001:000068b0       ??$WrapCallback@V<lambda_4b130013be4a466940e6fe08d32cda83>@@@details@Napi@@YAPEAUnapi_value__@@V<lambda_4b130013be4a466940e6fe08d32cda83>@@@Z 00000001800078b0 f i binding.obj
 0001:0000698c       __imp_load_napi_create_function 000000018000798c f   node:node.exe
 0001:00006998       __tailMerge_node_exe       0000000180007998     node:node.exe
 0001:00006a11       __imp_load_napi_open_handle_scope 0000000180007a11 f   node:node.exe
 0001:00006a1d       __imp_load_napi_coerce_to_number 0000000180007a1d f   node:node.exe
 0001:00006a29       __imp_load_napi_get_boolean 0000000180007a29 f   node:node.exe
 0001:00006a35       __imp_load_napi_get_last_error_info 0000000180007a35 f   node:node.exe
 0001:00006a41       __imp_load_napi_create_error 0000000180007a41 f   node:node.exe
 0001:00006a4d       __imp_load_napi_is_buffer  0000000180007a4d f   node:node.exe
 0001:00006a59       __imp_load_napi_delete_reference 0000000180007a59 f   node:node.exe
 0001:00006a65       __imp_load_napi_fatal_error 0000000180007a65 f   node:node.exe
 0001:00006a71       __imp_load_napi_is_exception_pending 0000000180007a71 f   node:node.exe
 0001:00006a7d       __imp_load_napi_create_symbol 0000000180007a7d f   node:node.exe
 0001:00006a89       __imp_load_napi_get_value_string_utf8 0000000180007a89 f   node:node.exe
 0001:00006a95       __imp_load_napi_close_escapable_handle_scope 0000000180007a95 f   node:node.exe
 0001:00006aa1       __imp_load_napi_escape_handle 0000000180007aa1 f   node:node.exe
 0001:00006aad       __imp_load_napi_get_buffer_info 0000000180007aad f   node:node.exe
 0001:00006ab9       __imp_load_napi_create_type_error 0000000180007ab9 f   node:node.exe
 0001:00006ac5       __imp_load_napi_create_external 0000000180007ac5 f   node:node.exe
 0001:00006ad1       __imp_load_napi_create_string_utf8 0000000180007ad1 f   node:node.exe
 0001:00006add       __imp_load_napi_module_register 0000000180007add f   node:node.exe
 0001:00006ae9       __imp_load_napi_set_named_property 0000000180007ae9 f   node:node.exe
 0001:00006af5       __imp_load_napi_create_external_buffer 0000000180007af5 f   node:node.exe
 0001:00006b01       __imp_load_napi_get_named_property 0000000180007b01 f   node:node.exe
 0001:00006b0d       __imp_load_napi_get_value_int64 0000000180007b0d f   node:node.exe
 0001:00006b19       __imp_load_napi_define_properties 0000000180007b19 f   node:node.exe
 0001:00006b25       __imp_load_napi_typeof     0000000180007b25 f   node:node.exe
 0001:00006b31       __imp_load_napi_throw      0000000180007b31 f   node:node.exe
 0001:00006b3d       __imp_load_napi_get_value_uint32 0000000180007b3d f   node:node.exe
 0001:00006b49       __imp_load_napi_get_and_clear_last_exception 0000000180007b49 f   node:node.exe
 0001:00006b55       __imp_load_napi_create_object 0000000180007b55 f   node:node.exe
 0001:00006b61       __imp_load_napi_get_undefined 0000000180007b61 f   node:node.exe
 0001:00006b6d       __imp_load_napi_get_typedarray_info 0000000180007b6d f   node:node.exe
 0001:00006b79       __imp_load_napi_get_cb_info 0000000180007b79 f   node:node.exe
 0001:00006b85       __imp_load_napi_open_escapable_handle_scope 0000000180007b85 f   node:node.exe
 0001:00006b91       __imp_load_napi_create_reference 0000000180007b91 f   node:node.exe
 0001:00006b9d       __imp_load_napi_close_handle_scope 0000000180007b9d f   node:node.exe
 0001:00006ba9       __imp_load_napi_create_double 0000000180007ba9 f   node:node.exe
 0001:00006bb5       __imp_load_napi_get_reference_value 0000000180007bb5 f   node:node.exe
 0001:00006bc4       ??0bad_alloc@std@@QEAA@AEBV01@@Z 0000000180007bc4 f i libcpmt:xthrow.obj
 0001:00006c04       ??0bad_alloc@std@@QEAA@XZ  0000000180007c04 f i libcpmt:xthrow.obj
 0001:00006c24       ??0exception@std@@QEAA@AEBV01@@Z 0000000180007c24 f i libcpmt:xthrow.obj
 0001:00006c5c       ??0length_error@std@@QEAA@AEBV01@@Z 0000000180007c5c f i libcpmt:xthrow.obj
 0001:00006c9c       ??0length_error@std@@QEAA@PEBD@Z 0000000180007c9c f i libcpmt:xthrow.obj
 0001:00006ce8       ??0logic_error@std@@QEAA@AEBV01@@Z 0000000180007ce8 f i libcpmt:xthrow.obj
 0001:00006d28       ??1bad_alloc@std@@UEAA@XZ  0000000180007d28 f i libcpmt:xthrow.obj
 0001:00006d28       ??1bad_array_new_length@std@@UEAA@XZ 0000000180007d28 f i LIBCMT:throw_bad_alloc.obj
 0001:00006d28       ??1length_error@std@@UEAA@XZ 0000000180007d28 f i libcpmt:xthrow.obj
 0001:00006d28       ??1bad_exception@std@@UEAA@XZ 0000000180007d28 f i libvcruntime:frame.obj
 0001:00006d3c       ??_Ebad_exception@std@@UEAAPEAXI@Z 0000000180007d3c f i libvcruntime:frame.obj
 0001:00006d3c       ??_Glength_error@std@@UEAAPEAXI@Z 0000000180007d3c f i libcpmt:xthrow.obj
 0001:00006d3c       ??_Ebad_array_new_length@std@@UEAAPEAXI@Z 0000000180007d3c f i LIBCMT:throw_bad_alloc.obj
 0001:00006d3c       ??_Eexception@std@@UEAAPEAXI@Z 0000000180007d3c f i libcpmt:xthrow.obj
 0001:00006d3c       ??_Elogic_error@std@@UEAAPEAXI@Z 0000000180007d3c f i libcpmt:xthrow.obj
 0001:00006d3c       ??_Gexception@std@@UEAAPEAXI@Z 0000000180007d3c f i libcpmt:xthrow.obj
 0001:00006d3c       ??_Gbad_alloc@std@@UEAAPEAXI@Z 0000000180007d3c f i libcpmt:xthrow.obj
 0001:00006d3c       ??_Gbad_exception@std@@UEAAPEAXI@Z 0000000180007d3c f i libvcruntime:frame.obj
 0001:00006d3c       ??_Glogic_error@std@@UEAAPEAXI@Z 0000000180007d3c f i libcpmt:xthrow.obj
 0001:00006d3c       ??_Ebad_alloc@std@@UEAAPEAXI@Z 0000000180007d3c f i libcpmt:xthrow.obj
 0001:00006d3c       ??_Elength_error@std@@UEAAPEAXI@Z 0000000180007d3c f i libcpmt:xthrow.obj
 0001:00006d3c       ??_Gbad_array_new_length@std@@UEAAPEAXI@Z 0000000180007d3c f i LIBCMT:throw_bad_alloc.obj
 0001:00006d80       ?_Xlength_error@std@@YAXPEBD@Z 0000000180007d80 f   libcpmt:xthrow.obj
 0001:00006da4       ?what@exception@std@@UEBAPEBDXZ 0000000180007da4 f i libcpmt:xthrow.obj
 0001:00006dd0       __security_check_cookie    0000000180007dd0 f   LIBCMT:amdsecgs.obj
 0001:00006df4       ??3@YAXPEAX_K@Z            0000000180007df4 f   LIBCMT:delete_scalar_size.obj
 0001:00006df4       ??_V@YAXPEAX@Z             0000000180007df4 f   LIBCMT:delete_array.obj
 0001:00006dfc       ??2@YAPEAX_K@Z             0000000180007dfc f   LIBCMT:new_scalar.obj
 0001:00006e38       ??_U@YAPEAX_K@Z            0000000180007e38 f   LIBCMT:new_array.obj
 0001:00006e40       ??_Etype_info@@UEAAPEAXI@Z 0000000180007e40 f i LIBCMT:std_type_info_static.obj
 0001:00006e40       ??_Gtype_info@@UEAAPEAXI@Z 0000000180007e40 f i LIBCMT:std_type_info_static.obj
 0001:0000719c       _DllMainCRTStartup         000000018000819c f   LIBCMT:dll_dllmain.obj
 0001:000071dc       __raise_securityfailure    00000001800081dc f   LIBCMT:gs_report.obj
 0001:00007210       __report_gsfailure         0000000180008210 f   LIBCMT:gs_report.obj
 0001:000072e4       __report_rangecheckfailure 00000001800082e4 f   LIBCMT:gs_report.obj
 0001:000072f8       __report_securityfailure   00000001800082f8 f   LIBCMT:gs_report.obj
 0001:00007478       ??3@YAXPEAX@Z              0000000180008478 f   LIBCMT:delete_scalar.obj
 0001:00007480       ??0bad_array_new_length@std@@QEAA@AEBV01@@Z 0000000180008480 f i LIBCMT:throw_bad_alloc.obj
 0001:000074c0       ??0bad_array_new_length@std@@QEAA@XZ 00000001800084c0 f i LIBCMT:throw_bad_alloc.obj
 0001:000074e0       ?__scrt_throw_std_bad_alloc@@YAXXZ 00000001800084e0 f   LIBCMT:throw_bad_alloc.obj
 0001:00007500       ?__scrt_throw_std_bad_array_new_length@@YAXXZ 0000000180008500 f   LIBCMT:throw_bad_alloc.obj
 0001:00007520       __security_init_cookie     0000000180008520 f   LIBCMT:gs_support.obj
 0001:000075cc       _get_startup_argv_mode     00000001800085cc f   LIBCMT:argv_mode.obj
 0001:000075cc       DllMain                    00000001800085cc f   LIBCMT:dll_dllmain_stub.obj
 0001:000075d4       ?__scrt_initialize_type_info@@YAXXZ 00000001800085d4 f   LIBCMT:tncleanup.obj
 0001:000075e4       ?__scrt_uninitialize_type_info@@YAXXZ 00000001800085e4 f   LIBCMT:tncleanup.obj
 0001:000075f0       __local_stdio_scanf_options 00000001800085f0 f i LIBCMT:default_local_stdio_options.obj
 0001:000075f8       __scrt_initialize_default_local_stdio_options 00000001800085f8 f   LIBCMT:default_local_stdio_options.obj
 0001:00007614       __scrt_acquire_startup_lock 0000000180008614 f   LIBCMT:utility.obj
 0001:00007650       __scrt_dllmain_after_initialize_c 0000000180008650 f   LIBCMT:utility.obj
 0001:00007684       __scrt_dllmain_before_initialize_c 0000000180008684 f   LIBCMT:utility.obj
 0001:0000769c       __scrt_dllmain_crt_thread_attach 000000018000869c f   LIBCMT:utility.obj
 0001:000076c4       __scrt_dllmain_crt_thread_detach 00000001800086c4 f   LIBCMT:utility.obj
 0001:000076dc       __scrt_dllmain_exception_filter 00000001800086dc f   LIBCMT:utility.obj
 0001:0000773c       __scrt_dllmain_uninitialize_c 000000018000873c f   LIBCMT:utility.obj
 0001:0000776c       __scrt_dllmain_uninitialize_critical 000000018000876c f   LIBCMT:utility.obj
 0001:00007780       __scrt_initialize_crt      0000000180008780 f   LIBCMT:utility.obj
 0001:000077cc       __scrt_initialize_onexit_tables 00000001800087cc f   LIBCMT:utility.obj
 0001:000078a4       __scrt_is_nonwritable_in_current_image 00000001800088a4 f   LIBCMT:utility.obj
 0001:00007940       __scrt_release_startup_lock 0000000180008940 f   LIBCMT:utility.obj
 0001:00007964       __scrt_uninitialize_crt    0000000180008964 f   LIBCMT:utility.obj
 0001:00007990       __scrt_get_dyn_tls_init_callback 0000000180008990 f   LIBCMT:dyn_tls_init.obj
 0001:00007998       __crt_debugger_hook        0000000180008998 f   LIBCMT:utility_desktop.obj
 0001:000079a0       __scrt_fastfail            00000001800089a0 f   LIBCMT:utility_desktop.obj
 0001:00007aec       _RTC_Initialize            0000000180008aec f   LIBCMT:initsect.obj
 0001:00007b28       _RTC_Terminate             0000000180008b28 f   LIBCMT:initsect.obj
 0001:00007b64       __isa_available_init       0000000180008b64 f   LIBCMT:cpu_disp.obj
 0001:00007ce0       __scrt_is_ucrt_dll_in_use  0000000180008ce0 f   LIBCMT:ucrt_detection.obj
 0001:00007cf0       ??$_CallSETranslator@V__FrameHandler3@@@@YAHPEAUEHExceptionRecord@@PEA_KPEAU_CONTEXT@@PEAU_xDISPATCHER_CONTEXT@@PEBU_s_FuncInfo@@K1@Z 0000000180008cf0 f i libvcruntime:risctrnsctrl.obj
 0001:00007d44       ?CatchTryBlock@__FrameHandler3@@SAPEBU_s_TryBlockMapEntry@@PEBU_s_FuncInfo@@H@Z 0000000180008d44 f   libvcruntime:risctrnsctrl.obj
 0001:00007d9c       ?ExecutionInCatch@__FrameHandler3@@SA_NPEAU_xDISPATCHER_CONTEXT@@PEBU_s_FuncInfo@@@Z 0000000180008d9c f   libvcruntime:risctrnsctrl.obj
 0001:00007dc8       ?FrameUnwindToEmptyState@__FrameHandler3@@SAXPEA_KPEAU_xDISPATCHER_CONTEXT@@PEBU_s_FuncInfo@@@Z 0000000180008dc8 f   libvcruntime:risctrnsctrl.obj
 0001:00007e2c       ?GetEstablisherFrame@__FrameHandler3@@SAPEA_KPEA_KPEAU_xDISPATCHER_CONTEXT@@PEBU_s_FuncInfo@@0@Z 0000000180008e2c f   libvcruntime:risctrnsctrl.obj
 0001:00007ef8       ?GetRangeOfTrysToCheck@__FrameHandler3@@SA?AU?$pair@Viterator@TryBlockMap@__FrameHandler3@@V123@@std@@AEAVTryBlockMap@1@HH@Z 0000000180008ef8 f   libvcruntime:risctrnsctrl.obj
 0001:00008054       ?UnwindNestedFrames@__FrameHandler3@@SAXPEA_KPEAUEHExceptionRecord@@PEAU_CONTEXT@@0PEAXPEBU_s_FuncInfo@@HHPEBU_s_HandlerType@@PEAU_xDISPATCHER_CONTEXT@@E@Z 0000000180009054 f   libvcruntime:risctrnsctrl.obj
 0001:00008178       _CreateFrameInfo           0000000180009178 f   libvcruntime:risctrnsctrl.obj
 0001:000081b4       _FindAndUnlinkFrame        00000001800091b4 f   libvcruntime:risctrnsctrl.obj
 0001:00008208       _GetImageBase              0000000180009208 f   libvcruntime:risctrnsctrl.obj
 0001:0000821c       _GetThrowImageBase         000000018000921c f   libvcruntime:risctrnsctrl.obj
 0001:00008230       _SetImageBase              0000000180009230 f   libvcruntime:risctrnsctrl.obj
 0001:00008248       _SetThrowImageBase         0000000180009248 f   libvcruntime:risctrnsctrl.obj
 0001:00008260       __CxxFrameHandler3         0000000180009260 f   libvcruntime:risctrnsctrl.obj
 0001:000082e0       __DestructExceptionObject  00000001800092e0 f   libvcruntime:ehhelpers.obj
 0001:00008354       ?_CallMemberFunction0@@YAXQEAX0@Z 0000000180009354 f i libvcruntime:ehhelpers.obj
 0001:00008358       _IsExceptionObjectToBeDestroyed 0000000180009358 f   libvcruntime:ehhelpers.obj
 0001:00008388       __AdjustPointer            0000000180009388 f   libvcruntime:ehhelpers.obj
 0001:000083ac       __FrameUnwindFilter        00000001800093ac f   libvcruntime:ehhelpers.obj
 0001:000083f8       __std_exception_copy       00000001800093f8 f   libvcruntime:std_exception.obj
 0001:00008488       __std_exception_destroy    0000000180009488 f   libvcruntime:std_exception.obj
 0001:000084b0       _CxxThrowException         00000001800094b0 f   libvcruntime:throw.obj
 0001:00008570       __C_specific_handler       0000000180009570 f   libvcruntime:riscchandler.obj
 0001:0000877c       __std_type_info_compare    000000018000977c f   libvcruntime:std_type_info.obj
 0001:000087a4       __std_type_info_destroy_list 00000001800097a4 f   libvcruntime:std_type_info.obj
 0001:000087d0       __vcrt_initialize          00000001800097d0 f   libvcruntime:initialization.obj
 0001:00008804       __vcrt_thread_attach       0000000180009804 f   libvcruntime:initialization.obj
 0001:00008818       __vcrt_thread_detach       0000000180009818 f   libvcruntime:initialization.obj
 0001:0000882c       __vcrt_uninitialize        000000018000982c f   libvcruntime:initialization.obj
 0001:0000884c       __vcrt_uninitialize_critical 000000018000984c f   libvcruntime:initialization.obj
 0001:00008870       memset_repmovs             0000000180009870 f   libvcruntime:memset.obj
 0001:00008890       memset                     0000000180009890 f   libvcruntime:memset.obj
 0001:00008a20       __vcrt_freefls             0000000180009a20 f   libvcruntime:per_thread_data.obj
 0001:00008a40       __vcrt_freeptd             0000000180009a40 f   libvcruntime:per_thread_data.obj
 0001:00008a90       __vcrt_getptd              0000000180009a90 f   libvcruntime:per_thread_data.obj
 0001:00008aac       __vcrt_getptd_noexit       0000000180009aac f   libvcruntime:per_thread_data.obj
 0001:00008b78       __vcrt_initialize_ptd      0000000180009b78 f   libvcruntime:per_thread_data.obj
 0001:00008bcc       __vcrt_uninitialize_ptd    0000000180009bcc f   libvcruntime:per_thread_data.obj
 0001:00008bf0       ?GetCurrentState@__FrameHandler3@@SAHPEA_KPEAU_xDISPATCHER_CONTEXT@@PEBU_s_FuncInfo@@@Z 0000000180009bf0 f   libvcruntime:ehstate.obj
 0001:00008c18       ?GetUnwindTryBlock@__FrameHandler3@@SAHPEA_KPEAU_xDISPATCHER_CONTEXT@@PEBU_s_FuncInfo@@@Z 0000000180009c18 f   libvcruntime:ehstate.obj
 0001:00008c44       ?SetState@__FrameHandler3@@SAXPEA_KPEBU_s_FuncInfo@@H@Z 0000000180009c44 f   libvcruntime:ehstate.obj
 0001:00008c50       ?SetUnwindTryBlock@__FrameHandler3@@SAXPEA_KPEAU_xDISPATCHER_CONTEXT@@PEBU_s_FuncInfo@@H@Z 0000000180009c50 f   libvcruntime:ehstate.obj
 0001:00008c8c       ?StateFromControlPc@__FrameHandler3@@SAHPEBU_s_FuncInfo@@PEAU_xDISPATCHER_CONTEXT@@@Z 0000000180009c8c f   libvcruntime:ehstate.obj
 0001:00008c94       ?StateFromIp@__FrameHandler3@@SAHPEBU_s_FuncInfo@@PEAU_xDISPATCHER_CONTEXT@@_K@Z 0000000180009c94 f   libvcruntime:ehstate.obj
 0001:00009720       ??$TypeMatchHelper@V__FrameHandler3@@@@YAHPEBU_s_HandlerType@@PEBU_s_CatchableType@@PEBU_s_ThrowInfo@@@Z 000000018000a720 f i libvcruntime:frame.obj
 0001:00009864       ??$__InternalCxxFrameHandler@V__FrameHandler3@@@@YA?AW4_EXCEPTION_DISPOSITION@@PEAUEHExceptionRecord@@PEA_KPEAU_CONTEXT@@PEAU_xDISPATCHER_CONTEXT@@PEBU_s_FuncInfo@@H1E@Z 000000018000a864 f i libvcruntime:frame.obj
 0001:00009aac       ??0bad_exception@std@@QEAA@AEBV01@@Z 000000018000aaac f i libvcruntime:frame.obj
 0001:00009aec       ??0bad_exception@std@@QEAA@XZ 000000018000aaec f i libvcruntime:frame.obj
 0001:00009b0c       ?CxxCallCatchBlock@__FrameHandler3@@SAPEAXPEAU_EXCEPTION_RECORD@@@Z 000000018000ab0c f   libvcruntime:frame.obj
 0001:00009d80       ?FrameUnwindToState@__FrameHandler3@@SAXPEA_KPEAU_xDISPATCHER_CONTEXT@@PEBU_s_FuncInfo@@H@Z 000000018000ad80 f   libvcruntime:frame.obj
 0001:00009f14       ?GetHandlerSearchState@__FrameHandler3@@SAHPEA_KPEAU_xDISPATCHER_CONTEXT@@PEBU_s_FuncInfo@@@Z 000000018000af14 f i libvcruntime:frame.obj
 0001:0000a118       ?_CallMemberFunction1@@YAXQEAX00@Z 000000018000b118 f i libvcruntime:frame.obj
 0001:0000a124       ?_CallMemberFunction2@@YAXQEAX00H@Z 000000018000b124 f i libvcruntime:frame.obj
 0001:0000a150       _NLG_Notify                000000018000b150 f   libvcruntime:notify.obj
 0001:0000a170       __NLG_Dispatch2            000000018000b170 f   libvcruntime:notify.obj
 0001:0000a180       __NLG_Return2              000000018000b180 f   libvcruntime:notify.obj
 0001:0000a184       __except_validate_context_record 000000018000b184 f   libvcruntime:jbcxrval.obj
 0001:0000a1bc       __vcrt_initialize_locks    000000018000b1bc f   libvcruntime:locks.obj
 0001:0000a204       __vcrt_uninitialize_locks  000000018000b204 f   libvcruntime:locks.obj
 0001:0000a414       __vcrt_FlsAlloc            000000018000b414 f   libvcruntime:winapi_downlevel.obj
 0001:0000a45c       __vcrt_FlsFree             000000018000b45c f   libvcruntime:winapi_downlevel.obj
 0001:0000a4a4       __vcrt_FlsGetValue         000000018000b4a4 f   libvcruntime:winapi_downlevel.obj
 0001:0000a4ec       __vcrt_FlsSetValue         000000018000b4ec f   libvcruntime:winapi_downlevel.obj
 0001:0000a540       __vcrt_InitializeCriticalSectionEx 000000018000b540 f   libvcruntime:winapi_downlevel.obj
 0001:0000a5a4       __vcrt_initialize_winapi_thunks 000000018000b5a4 f   libvcruntime:winapi_downlevel.obj
 0001:0000a5d4       __vcrt_uninitialize_winapi_thunks 000000018000b5d4 f   libvcruntime:winapi_downlevel.obj
 0001:0000a614       __vcrt_initialize_pure_virtual_call_handler 000000018000b614 f   libvcruntime:purevirt_data.obj
 0001:0000a640       _CallSettingFrame          000000018000b640 f   libvcruntime:handlers.obj
 0001:0000a690       _CallSettingFrameEncoded   000000018000b690 f   libvcruntime:handlers.obj
 0001:0000a6f0       memcpy_repmovs             000000018000b6f0 f   libvcruntime:memcpy.obj
 0001:0000a710       memmove                    000000018000b710 f   libvcruntime:memcpy.obj
 0001:0000a710       memcpy                     000000018000b710 f   libvcruntime:memcpy.obj
 0001:0000ab38       ??$is_overflow_condition@_K@__crt_strtox@@YA_NI_K@Z 000000018000bb38 f i libucrt:strtox.obj
 0001:0000ab68       ??$parse_integer@KV?$c_string_character_source@D@__crt_strtox@@@__crt_strtox@@YAKQEAU__crt_locale_pointers@@V?$c_string_character_source@D@0@H_N@Z 000000018000bb68 f i libucrt:strtox.obj
 0001:0000aea4       ??$parse_integer@_KV?$c_string_character_source@D@__crt_strtox@@@__crt_strtox@@YA_KQEAU__crt_locale_pointers@@V?$c_string_character_source@D@0@H_N@Z 000000018000bea4 f i libucrt:strtox.obj
 0001:0000b1d4       ??0_LocaleUpdate@@QEAA@QEAU__crt_locale_pointers@@@Z 000000018000c1d4 f i libucrt:strtox.obj
 0001:0000b270       _strtoi64                  000000018000c270 f   libucrt:strtox.obj
 0001:0000b29c       _strtoui64                 000000018000c29c f   libucrt:strtox.obj
 0001:0000b2c8       strtol                     000000018000c2c8 f   libucrt:strtox.obj
 0001:0000b4c0       ??$ensure_buffer_is_big_enough@D@formatting_buffer@__crt_stdio_output@@QEAA_N_K@Z 000000018000c4c0 f i libucrt:output.obj
 0001:0000b568       ??$type_case_integer_parse_into_buffer@I@?$output_processor@DV?$string_output_adapter@D@__crt_stdio_output@@V?$format_validation_base@DV?$string_output_adapter@D@__crt_stdio_output@@@2@@__crt_stdio_output@@AEAAXII_N@Z 000000018000c568 f i libucrt:output.obj
 0001:0000b5f8       ??$type_case_integer_parse_into_buffer@_K@?$output_processor@DV?$string_output_adapter@D@__crt_stdio_output@@V?$format_validation_base@DV?$string_output_adapter@D@__crt_stdio_output@@@2@@__crt_stdio_output@@AEAAX_KI_N@Z 000000018000c5f8 f i libucrt:output.obj
 0001:0000b68c       ??$write_multiple_characters@V?$string_output_adapter@D@__crt_stdio_output@@D@__crt_stdio_output@@YAXAEBV?$string_output_adapter@D@0@DHQEAH@Z 000000018000c68c f i libucrt:output.obj
 0001:0000b704       ?crop_zeroes@__crt_stdio_output@@YAXPEADQEAU__crt_locale_pointers@@@Z 000000018000c704 f i libucrt:output.obj
 0001:0000b770       ?force_decimal_point@__crt_stdio_output@@YAXPEADQEAU__crt_locale_pointers@@@Z 000000018000c770 f i libucrt:output.obj
 0001:0000b7e0       ?parse_int_from_format_string@?$output_processor@DV?$string_output_adapter@D@__crt_stdio_output@@V?$format_validation_base@DV?$string_output_adapter@D@__crt_stdio_output@@@2@@__crt_stdio_output@@AEAA_NQEAH@Z 000000018000c7e0 f i libucrt:output.obj
 0001:0000b884       ?process@?$output_processor@DV?$string_output_adapter@D@__crt_stdio_output@@V?$format_validation_base@DV?$string_output_adapter@D@__crt_stdio_output@@@2@@__crt_stdio_output@@QEAAHXZ 000000018000c884 f i libucrt:output.obj
 0001:0000ba9c       ?state_case_normal@?$output_processor@DV?$string_output_adapter@D@__crt_stdio_output@@V?$format_validation_base@DV?$string_output_adapter@D@__crt_stdio_output@@@2@@__crt_stdio_output@@AEAA_NXZ 000000018000ca9c f i libucrt:output.obj
 0001:0000bb10       ?state_case_normal_tchar@?$output_processor@DV?$string_output_adapter@D@__crt_stdio_output@@V?$format_validation_base@DV?$string_output_adapter@D@__crt_stdio_output@@@2@@__crt_stdio_output@@AEAA_ND@Z 000000018000cb10 f i libucrt:output.obj
 0001:0000bbb8       ?state_case_size@?$output_processor@DV?$string_output_adapter@D@__crt_stdio_output@@V?$format_validation_base@DV?$string_output_adapter@D@__crt_stdio_output@@@2@@__crt_stdio_output@@AEAA_NXZ 000000018000cbb8 f i libucrt:output.obj
 0001:0000bd2c       ?state_case_type@?$output_processor@DV?$string_output_adapter@D@__crt_stdio_output@@V?$format_validation_base@DV?$string_output_adapter@D@__crt_stdio_output@@@2@@__crt_stdio_output@@AEAA_NXZ 000000018000cd2c f i libucrt:output.obj
 0001:0000bf94       ?type_case_Z@?$output_processor@DV?$string_output_adapter@D@__crt_stdio_output@@V?$format_validation_base@DV?$string_output_adapter@D@__crt_stdio_output@@@2@@__crt_stdio_output@@AEAA_NXZ 000000018000cf94 f i libucrt:output.obj
 0001:0000c00c       ?type_case_a@?$output_processor@DV?$string_output_adapter@D@__crt_stdio_output@@V?$format_validation_base@DV?$string_output_adapter@D@__crt_stdio_output@@@2@@__crt_stdio_output@@AEAA_NXZ 000000018000d00c f i libucrt:output.obj
 0001:0000c1c8       ?type_case_c_tchar@?$output_processor@DV?$string_output_adapter@D@__crt_stdio_output@@V?$format_validation_base@DV?$string_output_adapter@D@__crt_stdio_output@@@2@@__crt_stdio_output@@AEAA_ND@Z 000000018000d1c8 f i libucrt:output.obj
 0001:0000c284       ?type_case_integer@?$output_processor@DV?$string_output_adapter@D@__crt_stdio_output@@V?$format_validation_base@DV?$string_output_adapter@D@__crt_stdio_output@@@2@@__crt_stdio_output@@AEAA_NI_N@Z 000000018000d284 f i libucrt:output.obj
 0001:0000c44c       ?type_case_n@?$output_processor@DV?$string_output_adapter@D@__crt_stdio_output@@V?$format_validation_base@DV?$string_output_adapter@D@__crt_stdio_output@@@2@@__crt_stdio_output@@AEAA_NXZ 000000018000d44c f i libucrt:output.obj
 0001:0000c528       ?type_case_s@?$output_processor@DV?$string_output_adapter@D@__crt_stdio_output@@V?$format_validation_base@DV?$string_output_adapter@D@__crt_stdio_output@@@2@@__crt_stdio_output@@AEAA_NXZ 000000018000d528 f i libucrt:output.obj
 0001:0000c5c0       ?write_stored_string_tchar@?$output_processor@DV?$string_output_adapter@D@__crt_stdio_output@@V?$format_validation_base@DV?$string_output_adapter@D@__crt_stdio_output@@@2@@__crt_stdio_output@@AEAA_ND@Z 000000018000d5c0 f i libucrt:output.obj
 0001:0000c698       ?write_string@?$string_output_adapter@D@__crt_stdio_output@@QEBAXQEBDHQEAHAEAV__crt_deferred_errno_cache@@@Z 000000018000d698 f i libucrt:output.obj
 0001:0000c73c       __stdio_common_vsnprintf_s 000000018000d73c f   libucrt:output.obj
 0001:0000c870       __acrt_errno_from_os_error 000000018000d870 f   libucrt:errno.obj
 0001:0000c8b8       __acrt_errno_map_os_error  000000018000d8b8 f   libucrt:errno.obj
 0001:0000c908       __doserrno                 000000018000d908 f   libucrt:errno.obj
 0001:0000c928       _errno                     000000018000d928 f   libucrt:errno.obj
 0001:0000c948       strerror                   000000018000d948 f   libucrt:strerror.obj
 0001:0000c9f0       __acrt_call_reportfault    000000018000d9f0 f   libucrt:invalid_parameter.obj
 0001:0000cb4c       __acrt_initialize_invalid_parameter_handler 000000018000db4c f   libucrt:invalid_parameter.obj
 0001:0000cb54       _invalid_parameter         000000018000db54 f   libucrt:invalid_parameter.obj
 0001:0000cc04       _invalid_parameter_noinfo  000000018000dc04 f   libucrt:invalid_parameter.obj
 0001:0000cc24       _invalid_parameter_noinfo_noreturn 000000018000dc24 f   libucrt:invalid_parameter.obj
 0001:0000cc54       _invoke_watson             000000018000dc54 f   libucrt:invalid_parameter.obj
 0001:0000cc9c       __ascii_stricmp            000000018000dc9c f   libucrt:stricmp.obj
 0001:0000ccdc       _stricmp                   000000018000dcdc f   libucrt:stricmp.obj
 0001:0000cd24       _stricmp_l                 000000018000dd24 f   libucrt:stricmp.obj
 0001:0000cdd8       __acrt_initialize_new_handler 000000018000ddd8 f   libucrt:new_handler.obj
 0001:0000cde0       _callnewh                  000000018000dde0 f   libucrt:new_handler.obj
 0001:0000ce10       _query_new_handler         000000018000de10 f   libucrt:new_handler.obj
 0001:0000ce44       malloc                     000000018000de44 f   libucrt:malloc.obj
 0001:0000ce4c       _initterm                  000000018000de4c f   libucrt:initterm.obj
 0001:0000ceb0       _initterm_e                000000018000deb0 f   libucrt:initterm.obj
 0001:0000cef0       free                       000000018000def0 f   libucrt:free.obj
 0001:0000cf04       _seh_filter_dll            000000018000df04 f   libucrt:exception_filter.obj
 0001:0000cf18       _seh_filter_exe            000000018000df18 f   libucrt:exception_filter.obj
 0001:0000d308       __acrt_initialize_thread_local_exit_callback 000000018000e308 f   libucrt:exit.obj
 0001:0000d310       _cexit                     000000018000e310 f   libucrt:exit.obj
 0001:0000d320       _exit                      000000018000e320 f   libucrt:exit.obj
 0001:0000d32c       _is_c_termination_complete 000000018000e32c f   libucrt:exit.obj
 0001:0000d4f8       __acrt_allocate_buffer_for_argv 000000018000e4f8 f   libucrt:argv_parsing.obj
 0001:0000d558       _configure_narrow_argv     000000018000e558 f   libucrt:argv_parsing.obj
 0001:0000d8d0       __dcrt_uninitialize_environments_nolock 000000018000e8d0 f   libucrt:environment_initialization.obj
 0001:0000d908       _initialize_narrow_environment 000000018000e908 f   libucrt:environment_initialization.obj
 0001:0000da64       _execute_onexit_table      000000018000ea64 f   libucrt:onexit.obj
 0001:0000daa0       _initialize_onexit_table   000000018000eaa0 f   libucrt:onexit.obj
 0001:0000db00       __acrt_uninitialize_command_line 000000018000eb00 f   libucrt:argv_data.obj
 0001:0000dbf8       __acrt_initialize          000000018000ebf8 f   libucrt:initialization.obj
 0001:0000dc0c       __acrt_thread_attach       000000018000ec0c f   libucrt:initialization.obj
 0001:0000dc20       __acrt_thread_detach       000000018000ec20 f   libucrt:initialization.obj
 0001:0000dc30       __acrt_uninitialize        000000018000ec30 f   libucrt:initialization.obj
 0001:0000dc68       __acrt_uninitialize_critical 000000018000ec68 f   libucrt:initialization.obj
 0001:0000dc78       terminate                  000000018000ec78 f   libucrt:terminate.obj
 0001:0000dc98       strcpy_s                   000000018000ec98 f   libucrt:strcpy_s.obj
 0001:0000dcf8       abort                      000000018000ecf8 f   libucrt:abort.obj
 0001:0000dd50       calloc                     000000018000ed50 f   libucrt:calloc.obj
 0001:0000dd70       strncmp                    000000018000ed70 f   libucrt:strncmp.obj
 0001:0000ddf0       wcsncmp                    000000018000edf0 f   libucrt:wcsncmp.obj
 0001:0000de1c       __pctype_func              000000018000ee1c f   libucrt:ctype.obj
 0001:0000de4c       _isctype_l                 000000018000ee4c f   libucrt:isctype.obj
 0001:0000e2d4       __acrt_freeptd             000000018000f2d4 f   libucrt:per_thread_data.obj
 0001:0000e318       __acrt_getptd              000000018000f318 f   libucrt:per_thread_data.obj
 0001:0000e3ec       __acrt_getptd_head         000000018000f3ec f   libucrt:per_thread_data.obj
 0001:0000e494       __acrt_getptd_noexit       000000018000f494 f   libucrt:per_thread_data.obj
 0001:0000e560       __acrt_initialize_ptd      000000018000f560 f   libucrt:per_thread_data.obj
 0001:0000e59c       __acrt_uninitialize_ptd    000000018000f59c f   libucrt:per_thread_data.obj
 0001:0000e5c0       __acrt_update_locale_info  000000018000f5c0 f   libucrt:locale_update.obj
 0001:0000e5f4       __acrt_update_multibyte_info 000000018000f5f4 f   libucrt:locale_update.obj
 0001:0000e698       __acrt_set_locale_changed  000000018000f698 f   libucrt:wsetlocale.obj
 0001:0000e6a4       __acrt_uninitialize_locale 000000018000f6a4 f   libucrt:wsetlocale.obj
 0001:0000e6d4       isdigit                    000000018000f6d4 f i libucrt:_ctype.obj
 0001:0000e7c8       _tolower_l                 000000018000f7c8 f   libucrt:tolower_toupper.obj
 0001:0000e908       tolower                    000000018000f908 f   libucrt:tolower_toupper.obj
 0001:0000e934       _free_base                 000000018000f934 f   libucrt:free_base.obj
 0001:0000e974       _malloc_base               000000018000f974 f   libucrt:malloc_base.obj
 0001:0000e9d4       _mbtowc_l                  000000018000f9d4 f   libucrt:mbtowc.obj
 0001:0000eb50       mbtowc                     000000018000fb50 f   libucrt:mbtowc.obj
 0001:0000eb58       _wctomb_s_l                000000018000fb58 f   libucrt:wctomb.obj
 0001:0000ecf8       wctomb_s                   000000018000fcf8 f   libucrt:wctomb.obj
 0001:0000ed0c       strnlen                    000000018000fd0c f   libucrt:strnlen.obj
 0001:0000ee5c       wcsnlen                    000000018000fe5c f   libucrt:strnlen.obj
 0001:0000fa08       __acrt_fp_format           0000000180010a08 f   libucrt:cvt.obj
 0001:0000fc90       _fileno                    0000000180010c90 f   libucrt:fileno.obj
 0001:0000fcb8       __acrt_initialize_stdio    0000000180010cb8 f   libucrt:_file.obj
 0001:0000fdd8       __acrt_uninitialize_stdio  0000000180010dd8 f   libucrt:_file.obj
 0001:0000fe34       _lock_file                 0000000180010e34 f   libucrt:_file.obj
 0001:0000fe40       _unlock_file               0000000180010e40 f   libucrt:_file.obj
 0001:0000fe4c       _get_printf_count_output   0000000180010e4c f   libucrt:printf_count_output.obj
 0001:00010060       __acrt_initialize_lowio    0000000180011060 f   libucrt:ioinit.obj
 0001:0001009c       __acrt_uninitialize_lowio  000000018001109c f   libucrt:ioinit.obj
 0001:000100dc       _calloc_base               00000001800110dc f   libucrt:calloc_base.obj
 0001:00010154       __sys_errlist              0000000180011154 f   libucrt:syserr.obj
 0001:0001015c       __sys_nerr                 000000018001115c f   libucrt:syserr.obj
 0001:00010164       strncpy_s                  0000000180011164 f   libucrt:strncpy_s.obj
 0001:00010238       __acrt_initialize_locks    0000000180011238 f   libucrt:locks.obj
 0001:00010280       __acrt_lock                0000000180011280 f   libucrt:locks.obj
 0001:0001029c       __acrt_uninitialize_locks  000000018001129c f   libucrt:locks.obj
 0001:000102d4       __acrt_unlock              00000001800112d4 f   libucrt:locks.obj
 0001:000102f0       __acrt_get_process_end_policy 00000001800112f0 f   libucrt:win_policies.obj
 0001:00010340       ??$__acrt_mbs_to_wcs_cp@U__crt_win32_buffer_internal_dynamic_resizing@@@@YAHQEBDAEAV?$__crt_win32_buffer@_WU__crt_win32_buffer_internal_dynamic_resizing@@@@I@Z 0000000180011340 f i libucrt:argv_wildcards.obj
 0001:000104b8       ??$__acrt_wcs_to_mbs_cp@U__crt_win32_buffer_internal_dynamic_resizing@@@@YAHQEB_WAEAV?$__crt_win32_buffer@DU__crt_win32_buffer_internal_dynamic_resizing@@@@I@Z 00000001800114b8 f i libucrt:argv_wildcards.obj
 0001:00010ce8       __acrt_expand_narrow_argv_wildcards 0000000180011ce8 f   libucrt:argv_wildcards.obj
 0001:00010cf0       ??$__acrt_wcs_to_mbs_cp@U__crt_win32_buffer_no_resizing@@@@YAHQEB_WAEAV?$__crt_win32_buffer@DU__crt_win32_buffer_no_resizing@@@@I@Z 0000000180011cf0 f i libucrt:getmodulefilenamea.obj
 0001:00010e04       __acrt_GetModuleFileNameA  0000000180011e04 f   libucrt:getmodulefilenamea.obj
 0001:00011650       __acrt_initialize_multibyte 0000000180012650 f   libucrt:mbctype.obj
 0001:000116b0       __acrt_update_thread_multibyte_data 00000001800126b0 f   libucrt:mbctype.obj
 0001:000116cc       _setmbcp_nolock            00000001800126cc f   libucrt:mbctype.obj
 0001:00011a00       _ismbblead                 0000000180012a00 f   libucrt:ismbbyte.obj
 0001:00011a14       __acrt_initialize_command_line 0000000180012a14 f   libucrt:argv_data.obj
 0001:00011a3c       __acrt_MultiByteToWideChar 0000000180012a3c f   libucrt:multibytetowidechar.obj
 0001:00011a98       __acrt_WideCharToMultiByte 0000000180012a98 f   libucrt:widechartomultibyte.obj
 0001:00011b30       __dcrt_get_narrow_environment_from_os 0000000180012b30 f   libucrt:get_environment_from_os.obj
 0001:00011c34       _recalloc_base             0000000180012c34 f   libucrt:recalloc.obj
 0001:00011ea4       __acrt_AppPolicyGetProcessTerminationMethodInternal 0000000180012ea4 f   libucrt:winapi_thunks.obj
 0001:00011ef4       __acrt_AreFileApisANSI     0000000180012ef4 f   libucrt:winapi_thunks.obj
 0001:00011f30       __acrt_FlsAlloc            0000000180012f30 f   libucrt:winapi_thunks.obj
 0001:00011f78       __acrt_FlsFree             0000000180012f78 f   libucrt:winapi_thunks.obj
 0001:00011fc0       __acrt_FlsGetValue         0000000180012fc0 f   libucrt:winapi_thunks.obj
 0001:00012008       __acrt_FlsSetValue         0000000180013008 f   libucrt:winapi_thunks.obj
 0001:0001205c       __acrt_InitializeCriticalSectionEx 000000018001305c f   libucrt:winapi_thunks.obj
 0001:000120c0       __acrt_LCMapStringEx       00000001800130c0 f   libucrt:winapi_thunks.obj
 0001:0001219c       __acrt_LocaleNameToLCID    000000018001319c f   libucrt:winapi_thunks.obj
 0001:000121ec       __acrt_initialize_winapi_thunks 00000001800131ec f   libucrt:winapi_thunks.obj
 0001:00012220       __acrt_uninitialize_winapi_thunks 0000000180013220 f   libucrt:winapi_thunks.obj
 0001:00012264       __acrt_initialize_heap     0000000180013264 f   libucrt:heap_handle.obj
 0001:00012280       __acrt_uninitialize_heap   0000000180013280 f   libucrt:heap_handle.obj
 0001:0001228c       __acrt_execute_initializers 000000018001328c f   libucrt:shared_initialization.obj
 0001:0001230c       __acrt_execute_uninitializers 000000018001330c f   libucrt:shared_initialization.obj
 0001:00012390       __acrt_get_sigabrt_handler 0000000180013390 f   libucrt:signal.obj
 0001:000123c0       __acrt_initialize_signal_handlers 00000001800133c0 f   libucrt:signal.obj
 0001:000123e0       raise                      00000001800133e0 f   libucrt:signal.obj
 0001:0001264c       __acrt_has_user_matherr    000000018001364c f   libucrt:matherr.obj
 0001:0001266c       __acrt_initialize_user_matherr 000000018001366c f   libucrt:matherr.obj
 0001:00012674       __acrt_invoke_user_matherr 0000000180013674 f   libucrt:matherr.obj
 0001:00012880       __acrt_stdio_flush_nolock  0000000180013880 f   libucrt:fflush.obj
 0001:000128fc       _fflush_nolock             00000001800138fc f   libucrt:fflush.obj
 0001:00012948       _flushall                  0000000180013948 f   libucrt:fflush.obj
 0001:00012950       _isleadbyte_l              0000000180013950 f i libucrt:_wctype.obj
 0001:0001299c       __acrt_GetStringTypeA      000000018001399c f   libucrt:getstringtypea.obj
 0001:00012b2c       __acrt_add_locale_ref      0000000180013b2c f   libucrt:locale_refcounting.obj
 0001:00012bb8       __acrt_free_locale         0000000180013bb8 f   libucrt:locale_refcounting.obj
 0001:00012d30       __acrt_locale_add_lc_time_reference 0000000180013d30 f   libucrt:locale_refcounting.obj
 0001:00012d58       __acrt_locale_free_lc_time_if_unreferenced 0000000180013d58 f   libucrt:locale_refcounting.obj
 0001:00012d90       __acrt_locale_release_lc_time_reference 0000000180013d90 f   libucrt:locale_refcounting.obj
 0001:00012db8       __acrt_release_locale_ref  0000000180013db8 f   libucrt:locale_refcounting.obj
 0001:00012e60       __acrt_update_thread_locale_data 0000000180013e60 f   libucrt:locale_refcounting.obj
 0001:00012ed0       _updatetlocinfoEx_nolock   0000000180013ed0 f   libucrt:locale_refcounting.obj
 0001:00012f38       __acrt_locale_free_monetary 0000000180013f38 f   libucrt:initmon.obj
 0001:00013044       __acrt_locale_free_numeric 0000000180014044 f   libucrt:initnum.obj
 0001:00013108       __acrt_locale_free_time    0000000180014108 f   libucrt:inittime.obj
 0001:00013528       __acrt_LCMapStringA        0000000180014528 f   libucrt:lcmapstringa.obj
 0001:000135c0       _query_new_mode            00000001800145c0 f   libucrt:new_mode.obj
 0001:000135c8       ?__mbrtowc_utf8@__crt_mbstring@@YA_KPEA_WPEBD_KPEAU_Mbstatet@@@Z 00000001800145c8 f   libucrt:mbrtowc.obj
 0001:00013604       ?__mbsrtowcs_utf8@__crt_mbstring@@YA_KPEA_WPEAPEBD_KPEAU_Mbstatet@@@Z 0000000180014604 f   libucrt:mbrtowc.obj
 0001:0001377c       ?__c32rtomb_utf8@__crt_mbstring@@YA_KPEAD_UPEAU_Mbstatet@@@Z 000000018001477c f   libucrt:c32rtomb.obj
 0001:00013834       __acrt_fp_strflt_to_string 0000000180014834 f   libucrt:_fptostr.obj
 0001:00013920       ?divide@__crt_strtox@@YA_KAEAUbig_integer@1@AEBU21@@Z 0000000180014920 f i libucrt:cfout.obj
 0001:00013d4c       __acrt_fltout              0000000180014d4c f   libucrt:cfout.obj
 0001:00015008       _fcloseall                 0000000180016008 f   libucrt:closeall.obj
 0001:000150bc       __acrt_stdio_free_buffer_nolock 00000001800160bc f   libucrt:_freebuf.obj
 0001:000150fc       _isatty                    00000001800160fc f   libucrt:isatty.obj
 0001:0001515c       __acrt_lowio_create_handle_array 000000018001615c f   libucrt:osfinfo.obj
 0001:00015204       __acrt_lowio_destroy_handle_array 0000000180016204 f   libucrt:osfinfo.obj
 0001:00015254       __acrt_lowio_ensure_fh_exists 0000000180016254 f   libucrt:osfinfo.obj
 0001:000152fc       __acrt_lowio_lock_fh       00000001800162fc f   libucrt:osfinfo.obj
 0001:00015324       __acrt_lowio_unlock_fh     0000000180016324 f   libucrt:osfinfo.obj
 0001:0001534c       _free_osfhnd               000000018001634c f   libucrt:osfinfo.obj
 0001:00015408       _get_osfhandle             0000000180016408 f   libucrt:osfinfo.obj
 0001:00015480       qsort                      0000000180016480 f   libucrt:qsort.obj
 0001:000158e0       strpbrk                    00000001800168e0 f   libucrt:strpbrk.obj
 0001:00015cc0       _mbsdec                    0000000180016cc0 f   libucrt:mbsdec.obj
 0001:00015cc8       _mbsdec_l                  0000000180016cc8 f   libucrt:mbsdec.obj
 0001:00015d74       _msize_base                0000000180016d74 f   libucrt:msize.obj
 0001:00015db0       _realloc_base              0000000180016db0 f   libucrt:realloc_base.obj
 0001:00015f14       __acrt_DownlevelLocaleNameToLCID 0000000180016f14 f   libucrt:lcidtoname_downlevel.obj
 0001:00015fd4       _commit                    0000000180016fd4 f   libucrt:commit.obj
 0001:000168d4       _write                     00000001800178d4 f   libucrt:write.obj
 0001:000169c0       _write_nolock              00000001800179c0 f   libucrt:write.obj
 0001:00016c9c       __strncnt                  0000000180017c9c f   libucrt:strncnt.obj
 0001:00016cb4       ?__mbrtoc32_utf8@__crt_mbstring@@YA_KPEA_UPEBD_KPEAU_Mbstatet@@@Z 0000000180017cb4 f   libucrt:mbrtoc32.obj
 0001:00016e90       fegetenv                   0000000180017e90 f   libucrt:fegetenv.obj
 0001:00016eb0       fesetenv                   0000000180017eb0 f   libucrt:fesetenv.obj
 0001:00016f00       feholdexcept               0000000180017f00 f   libucrt:feholdexcept.obj
 0001:00016f50       ceil                       0000000180017f50 f   libucrt:ceil.obj
 0001:00017020       log10                      0000000180018020 f   libucrt:log10.obj
 0001:00017668       _lseeki64_nolock           0000000180018668 f   libucrt:lseek.obj
 0001:00017670       _fclose_nolock             0000000180018670 f   libucrt:fclose.obj
 0001:000176f4       fclose                     00000001800186f4 f   libucrt:fclose.obj
 0001:00017758       _query_app_type            0000000180018758 f   libucrt:report_runtime_error.obj
 0001:00017760       _putwch_nolock             0000000180018760 f   libucrt:putwch.obj
 0001:0001779c       __acrt_fenv_get_control    000000018001879c f   libucrt:_fenvutils.obj
 0001:00017890       __acrt_fenv_get_status     0000000180018890 f   libucrt:_fenvutils.obj
 0001:000178e4       __acrt_fenv_set_control    00000001800188e4 f   libucrt:_fenvutils.obj
 0001:00017a2c       __acrt_fenv_set_status     0000000180018a2c f   libucrt:_fenvutils.obj
 0001:00017ab0       _clearfp                   0000000180018ab0 f   libucrt:ieee.obj
 0001:00017c44       _handle_error              0000000180018c44 f   libucrt:libm_error.obj
 0001:00017d6c       _handle_nan                0000000180018d6c f   libucrt:libm_error.obj
 0001:00017d90       __acrt_initialize_fma3     0000000180018d90 f   libucrt:fma3_available.obj
 0001:00017e00       _log10_special             0000000180018e00 f   libucrt:log_special.obj
 0001:00017f2c       _close                     0000000180018f2c f   libucrt:close.obj
 0001:00017fd0       _close_nolock              0000000180018fd0 f   libucrt:close.obj
 0001:00018090       ?__acrt_stdio_free_stream@@YAXV__crt_stdio_stream@@@Z 0000000180019090 f   libucrt:stream.obj
 0001:000180ac       __dcrt_lowio_ensure_console_output_initialized 00000001800190ac f   libucrt:initcon.obj
 0001:00018100       __dcrt_terminate_console_output 0000000180019100 f   libucrt:initcon.obj
 0001:0001811c       __dcrt_write_console       000000018001911c f   libucrt:initcon.obj
 0001:000181f0       _get_fpsr                  00000001800191f0 f   libucrt:fpsr.obj
 0001:00018200       _set_fpsr                  0000000180019200 f   libucrt:fpsr.obj
 0001:0001820a       _fclrf                     000000018001920a f   libucrt:fpsr.obj
 0001:0001821e       _frnd                      000000018001921e f   libucrt:fpsr.obj
 0001:00018240       _raise_exc                 0000000180019240 f   libucrt:fpexcept.obj
 0001:00018268       _raise_exc_ex              0000000180019268 f   libucrt:fpexcept.obj
 0001:00018578       _set_errno_from_matherr    0000000180019578 f   libucrt:fpexcept.obj
 0001:000185a8       _clrfp                     00000001800195a8 f   libucrt:fpctrl.obj
 0001:000185c8       _ctrlfp                    00000001800195c8 f   libucrt:fpctrl.obj
 0001:00018644       _set_statfp                0000000180019644 f   libucrt:fpctrl.obj
 0001:00018664       _statfp                    0000000180019664 f   libucrt:fpctrl.obj
 0001:00018675       IsProcessorFeaturePresent  0000000180019675 f   kernel32:KERNEL32.dll
 0001:0001867c       ?DloadAcquireSectionWriteAccess@@YAXXZ 000000018001967c f i DelayImp:delayhlp.obj
 0001:00018728       ?DloadGetSRWLockFunctionPointers@@YAEXZ 0000000180019728 f i DelayImp:delayhlp.obj
 0001:000187c4       ?DloadMakePermanentImageCommit@@YAXPEAX_K@Z 00000001800197c4 f i DelayImp:delayhlp.obj
 0001:0001885c       ?DloadObtainSection@@YAPEAXPEAK0@Z 000000018001985c f i DelayImp:delayhlp.obj
 0001:000188f8       ?DloadProtectSection@@YAXKPEAK@Z 00000001800198f8 f i DelayImp:delayhlp.obj
 0001:00018988       ?DloadReleaseSectionWriteAccess@@YAXXZ 0000000180019988 f i DelayImp:delayhlp.obj
 0001:00018a1c       __delayLoadHelper2         0000000180019a1c f   DelayImp:delayhlp.obj
 0001:00018cdc       __GSHandlerCheck           0000000180019cdc f   LIBCMT:gshandler.obj
 0001:00018cfc       __GSHandlerCheckCommon     0000000180019cfc f   LIBCMT:gshandler.obj
 0001:00018d60       _FindPESection             0000000180019d60 f   LIBCMT:pesect.obj
 0001:00018db0       _IsNonwritableInCurrentImage 0000000180019db0 f   LIBCMT:pesect.obj
 0001:00018e00       _ValidateImageBase         0000000180019e00 f   LIBCMT:pesect.obj
 0001:00018e40       _alloca_probe              0000000180019e40 f   LIBCMT:chkstk.obj
 0001:00018e40       __chkstk                   0000000180019e40 f   LIBCMT:chkstk.obj
 0001:00018eb0       memcmp                     0000000180019eb0 f   libvcruntime:memcmp.obj
 0001:00018f78       strrchr                    0000000180019f78 f   libvcruntime:strrchr.obj
 0001:000190c4       __GSHandlerCheck_EH        000000018001a0c4 f   LIBCMT:gshandlereh.obj
 0001:00019160       _guard_dispatch_icall_nop  000000018001a160 f   LIBCMT:guard_dispatch.obj
 0002:00000000       __imp_GetModuleHandleA     000000018001b000     kernel32:KERNEL32.dll
 0002:00000008       __imp_LoadLibraryExA       000000018001b008     kernel32:KERNEL32.dll
 0002:00000010       __imp_RtlCaptureContext    000000018001b010     kernel32:KERNEL32.dll
 0002:00000018       __imp_RtlLookupFunctionEntry 000000018001b018     kernel32:KERNEL32.dll
 0002:00000020       __imp_RtlVirtualUnwind     000000018001b020     kernel32:KERNEL32.dll
 0002:00000028       __imp_UnhandledExceptionFilter 000000018001b028     kernel32:KERNEL32.dll
 0002:00000030       __imp_SetUnhandledExceptionFilter 000000018001b030     kernel32:KERNEL32.dll
 0002:00000038       __imp_GetCurrentProcess    000000018001b038     kernel32:KERNEL32.dll
 0002:00000040       __imp_TerminateProcess     000000018001b040     kernel32:KERNEL32.dll
 0002:00000048       __imp_IsProcessorFeaturePresent 000000018001b048     kernel32:KERNEL32.dll
 0002:00000050       __imp_QueryPerformanceCounter 000000018001b050     kernel32:KERNEL32.dll
 0002:00000058       __imp_GetCurrentProcessId  000000018001b058     kernel32:KERNEL32.dll
 0002:00000060       __imp_GetCurrentThreadId   000000018001b060     kernel32:KERNEL32.dll
 0002:00000068       __imp_GetSystemTimeAsFileTime 000000018001b068     kernel32:KERNEL32.dll
 0002:00000070       __imp_InitializeSListHead  000000018001b070     kernel32:KERNEL32.dll
 0002:00000078       __imp_IsDebuggerPresent    000000018001b078     kernel32:KERNEL32.dll
 0002:00000080       __imp_GetStartupInfoW      000000018001b080     kernel32:KERNEL32.dll
 0002:00000088       __imp_GetModuleHandleW     000000018001b088     kernel32:KERNEL32.dll
 0002:00000090       __imp_RtlUnwindEx          000000018001b090     kernel32:KERNEL32.dll
 0002:00000098       __imp_RtlPcToFileHeader    000000018001b098     kernel32:KERNEL32.dll
 0002:000000a0       __imp_RaiseException       000000018001b0a0     kernel32:KERNEL32.dll
 0002:000000a8       __imp_InterlockedFlushSList 000000018001b0a8     kernel32:KERNEL32.dll
 0002:000000b0       __imp_GetLastError         000000018001b0b0     kernel32:KERNEL32.dll
 0002:000000b8       __imp_SetLastError         000000018001b0b8     kernel32:KERNEL32.dll
 0002:000000c0       __imp_EncodePointer        000000018001b0c0     kernel32:KERNEL32.dll
 0002:000000c8       __imp_EnterCriticalSection 000000018001b0c8     kernel32:KERNEL32.dll
 0002:000000d0       __imp_LeaveCriticalSection 000000018001b0d0     kernel32:KERNEL32.dll
 0002:000000d8       __imp_DeleteCriticalSection 000000018001b0d8     kernel32:KERNEL32.dll
 0002:000000e0       __imp_InitializeCriticalSectionAndSpinCount 000000018001b0e0     kernel32:KERNEL32.dll
 0002:000000e8       __imp_TlsAlloc             000000018001b0e8     kernel32:KERNEL32.dll
 0002:000000f0       __imp_TlsGetValue          000000018001b0f0     kernel32:KERNEL32.dll
 0002:000000f8       __imp_TlsSetValue          000000018001b0f8     kernel32:KERNEL32.dll
 0002:00000100       __imp_TlsFree              000000018001b100     kernel32:KERNEL32.dll
 0002:00000108       __imp_FreeLibrary          000000018001b108     kernel32:KERNEL32.dll
 0002:00000110       __imp_GetProcAddress       000000018001b110     kernel32:KERNEL32.dll
 0002:00000118       __imp_LoadLibraryExW       000000018001b118     kernel32:KERNEL32.dll
 0002:00000120       __imp_ExitProcess          000000018001b120     kernel32:KERNEL32.dll
 0002:00000128       __imp_GetModuleHandleExW   000000018001b128     kernel32:KERNEL32.dll
 0002:00000130       __imp_GetModuleFileNameW   000000018001b130     kernel32:KERNEL32.dll
 0002:00000138       __imp_HeapFree             000000018001b138     kernel32:KERNEL32.dll
 0002:00000140       __imp_HeapAlloc            000000018001b140     kernel32:KERNEL32.dll
 0002:00000148       __imp_GetStdHandle         000000018001b148     kernel32:KERNEL32.dll
 0002:00000150       __imp_GetFileType          000000018001b150     kernel32:KERNEL32.dll
 0002:00000158       __imp_FindClose            000000018001b158     kernel32:KERNEL32.dll
 0002:00000160       __imp_FindFirstFileExW     000000018001b160     kernel32:KERNEL32.dll
 0002:00000168       __imp_FindNextFileW        000000018001b168     kernel32:KERNEL32.dll
 0002:00000170       __imp_IsValidCodePage      000000018001b170     kernel32:KERNEL32.dll
 0002:00000178       __imp_GetACP               000000018001b178     kernel32:KERNEL32.dll
 0002:00000180       __imp_GetOEMCP             000000018001b180     kernel32:KERNEL32.dll
 0002:00000188       __imp_GetCPInfo            000000018001b188     kernel32:KERNEL32.dll
 0002:00000190       __imp_GetCommandLineA      000000018001b190     kernel32:KERNEL32.dll
 0002:00000198       __imp_GetCommandLineW      000000018001b198     kernel32:KERNEL32.dll
 0002:000001a0       __imp_MultiByteToWideChar  000000018001b1a0     kernel32:KERNEL32.dll
 0002:000001a8       __imp_WideCharToMultiByte  000000018001b1a8     kernel32:KERNEL32.dll
 0002:000001b0       __imp_GetEnvironmentStringsW 000000018001b1b0     kernel32:KERNEL32.dll
 0002:000001b8       __imp_FreeEnvironmentStringsW 000000018001b1b8     kernel32:KERNEL32.dll
 0002:000001c0       __imp_LCMapStringW         000000018001b1c0     kernel32:KERNEL32.dll
 0002:000001c8       __imp_GetProcessHeap       000000018001b1c8     kernel32:KERNEL32.dll
 0002:000001d0       __imp_GetStringTypeW       000000018001b1d0     kernel32:KERNEL32.dll
 0002:000001d8       __imp_SetFilePointerEx     000000018001b1d8     kernel32:KERNEL32.dll
 0002:000001e0       __imp_SetStdHandle         000000018001b1e0     kernel32:KERNEL32.dll
 0002:000001e8       __imp_HeapSize             000000018001b1e8     kernel32:KERNEL32.dll
 0002:000001f0       __imp_HeapReAlloc          000000018001b1f0     kernel32:KERNEL32.dll
 0002:000001f8       __imp_FlushFileBuffers     000000018001b1f8     kernel32:KERNEL32.dll
 0002:00000200       __imp_WriteFile            000000018001b200     kernel32:KERNEL32.dll
 0002:00000208       __imp_GetConsoleCP         000000018001b208     kernel32:KERNEL32.dll
 0002:00000210       __imp_GetConsoleMode       000000018001b210     kernel32:KERNEL32.dll
 0002:00000218       __imp_CloseHandle          000000018001b218     kernel32:KERNEL32.dll
 0002:00000220       __imp_CreateFileW          000000018001b220     kernel32:KERNEL32.dll
 0002:00000228       __imp_WriteConsoleW        000000018001b228     kernel32:KERNEL32.dll
 0002:00000230       __imp_GetSystemInfo        000000018001b230     kernel32:KERNEL32.dll
 0002:00000238       __imp_VirtualProtect       000000018001b238     kernel32:KERNEL32.dll
 0002:00000240       __imp_VirtualQuery         000000018001b240     kernel32:KERNEL32.dll
 0002:00000248       \177KERNEL32_NULL_THUNK_DATA 000000018001b248     kernel32:KERNEL32.dll
 0002:00000250       __guard_check_icall_fptr   000000018001b250     LIBCMT:guard_support.obj
 0002:00000258       __guard_dispatch_icall_fptr 000000018001b258     LIBCMT:guard_support.obj
 0002:00000260       __xc_a                     000000018001b260     LIBCMT:initializers.obj
 0002:00000268       _register_binding_         000000018001b268     binding.obj
 0002:00000270       __xc_z                     000000018001b270     LIBCMT:initializers.obj
 0002:00000278       __xi_a                     000000018001b278     LIBCMT:initializers.obj
 0002:00000280       __acrt_stdio_initializer   000000018001b280     libucrt:stdio_initializer.obj
 0002:00000288       __acrt_multibyte_initializer 000000018001b288     libucrt:multibyte_initializer.obj
 0002:00000290       __acrt_tran_fma3_initializer 000000018001b290     libucrt:fma3_initializer.obj
 0002:00000298       __xi_z                     000000018001b298     LIBCMT:initializers.obj
 0002:000002a0       __xp_a                     000000018001b2a0     LIBCMT:initializers.obj
 0002:000002a8       __acrt_locale_terminator   000000018001b2a8     libucrt:locale_initializer.obj
 0002:000002b0       __dcrt_console_output_terminator 000000018001b2b0     libucrt:console_output_initializer.obj
 0002:000002b8       __acrt_stdio_terminator    000000018001b2b8     libucrt:stdio_initializer.obj
 0002:000002c0       __xp_z                     000000018001b2c0     LIBCMT:initializers.obj
 0002:000002c8       __xt_a                     000000018001b2c8     LIBCMT:initializers.obj
 0002:000002d0       __xt_z                     000000018001b2d0     LIBCMT:initializers.obj
 0002:000002e0       __sz_node_exe              000000018001b2e0     node:node.exe
 0002:000002f8       ??_7exception@std@@6B@     000000018001b2f8     libcpmt:xthrow.obj
 0002:00000308       ??_C@_0BC@EOODALEL@Unknown?5exception@ 000000018001b308     libcpmt:xthrow.obj
 0002:00000328       ??_7bad_alloc@std@@6B@     000000018001b328     libcpmt:xthrow.obj
 0002:00000338       ??_C@_0P@GHFPNOJB@bad?5allocation@ 000000018001b338     libcpmt:xthrow.obj
 0002:00000350       ??_7logic_error@std@@6B@   000000018001b350     libcpmt:xthrow.obj
 0002:00000368       ??_7length_error@std@@6B@  000000018001b368     libcpmt:xthrow.obj
 0002:00000380       ??_7type_info@@6B@         000000018001b380     LIBCMT:std_type_info_static.obj
 0002:00000388       _pRawDllMain               000000018001b388     LIBCMT:dll_dllmain.obj
 0002:00000388       _pDefaultRawDllMain        000000018001b388     LIBCMT:dll_dllmain.obj
 0002:000003a8       ??_7bad_array_new_length@std@@6B@ 000000018001b3a8     LIBCMT:throw_bad_alloc.obj
 0002:000003b8       ??_C@_0BF@KINCDENJ@bad?5array?5new?5length@ 000000018001b3b8     LIBCMT:throw_bad_alloc.obj
 0002:00000468       _pDestructExceptionObject  000000018001b468     libvcruntime:ehhelpers.obj
 0002:000004b8       ??_7bad_exception@std@@6B@ 000000018001b4b8     libvcruntime:frame.obj
 0002:000004c8       ??_C@_0O@DPKOEFFH@bad?5exception@ 000000018001b4c8     libvcruntime:frame.obj
 0002:00000818       ??_C@_08EHJDFFNH@__based?$CI@ 000000018001b818     libvcruntime:undname.obj
 0002:00000828       ??_C@_07KOLFKCDI@__cdecl@  000000018001b828     libvcruntime:undname.obj
 0002:00000830       ??_C@_08GHMPAG@__pascal@   000000018001b830     libvcruntime:undname.obj
 0002:00000840       ??_C@_09IFJBGAPI@__stdcall@ 000000018001b840     libvcruntime:undname.obj
 0002:00000850       ??_C@_0L@NPHFGOKO@__thiscall@ 000000018001b850     libvcruntime:undname.obj
 0002:00000860       ??_C@_0L@JMKHOMEK@__fastcall@ 000000018001b860     libvcruntime:undname.obj
 0002:00000870       ??_C@_0N@BCKKPABJ@__vectorcall@ 000000018001b870     libvcruntime:undname.obj
 0002:00000880       ??_C@_09HIJEGCPM@__clrcall@ 000000018001b880     libvcruntime:undname.obj
 0002:0000088c       ??_C@_06GHPCKEAG@__eabi@   000000018001b88c     libvcruntime:undname.obj
 0002:00000898       ??_C@_09IOPIDJLG@__swift_1@ 000000018001b898     libvcruntime:undname.obj
 0002:000008a8       ??_C@_09KFNFGKHF@__swift_2@ 000000018001b8a8     libvcruntime:undname.obj
 0002:000008b8       ??_C@_07JOMMBBKO@__ptr64@  000000018001b8b8     libvcruntime:undname.obj
 0002:000008c0       ??_C@_0L@PILCLIHE@__restrict@ 000000018001b8c0     libvcruntime:undname.obj
 0002:000008d0       ??_C@_0M@GFIIJFMG@__unaligned@ 000000018001b8d0     libvcruntime:undname.obj
 0002:000008e0       ??_C@_09DHDLOLLB@restrict?$CI@ 000000018001b8e0     libvcruntime:undname.obj
 0002:000008ea       ??_C@_00CNPNBAHC@@         000000018001b8ea     libvcruntime:undname.obj
 0002:000008ec       ??_C@_04NIHEBCM@?5new@     000000018001b8ec     libvcruntime:undname.obj
 0002:000008f8       ??_C@_07FPCDHGMM@?5delete@ 000000018001b8f8     libvcruntime:undname.obj
 0002:00000900       ??_C@_01NEMOKFLO@?$DN@     000000018001b900     libvcruntime:undname.obj
 0002:00000904       ??_C@_02GPIOPFAK@?$DO?$DO@ 000000018001b904     libvcruntime:undname.obj
 0002:00000908       ??_C@_02FODMEDOG@?$DM?$DM@ 000000018001b908     libvcruntime:undname.obj
 0002:0000090c       ??_C@_01DCLJPIOD@?$CB@     000000018001b90c     libvcruntime:undname.obj
 0002:00000910       ??_C@_02EGOFBIJA@?$DN?$DN@ 000000018001b910     libvcruntime:undname.obj
 0002:00000914       ??_C@_02FDNJECIE@?$CB?$DN@ 000000018001b914     libvcruntime:undname.obj
 0002:00000918       ??_C@_02GPECMEKF@?$FL?$FN@ 000000018001b918     libvcruntime:undname.obj
 0002:00000920       ??_C@_08LHJFAFGD@operator@ 000000018001b920     libvcruntime:undname.obj
 0002:0000092c       ??_C@_02HBOOOICD@?9?$DO@   000000018001b92c     libvcruntime:undname.obj
 0002:00000930       ??_C@_01NBENCBCI@?$CK@     000000018001b930     libvcruntime:undname.obj
 0002:00000934       ??_C@_02ECNGHCIF@?$CL?$CL@ 000000018001b934     libvcruntime:undname.obj
 0002:00000938       ??_C@_02BAABKJLB@?9?9@     000000018001b938     libvcruntime:undname.obj
 0002:0000093c       ??_C@_01JOAMLHOP@?9@       000000018001b93c     libvcruntime:undname.obj
 0002:00000940       ??_C@_01MIFGBAGJ@?$CL@     000000018001b940     libvcruntime:undname.obj
 0002:00000944       ??_C@_01HNPIGOCE@?$CG@     000000018001b944     libvcruntime:undname.obj
 0002:00000948       ??_C@_03MNHNFDLC@?9?$DO?$CK@ 000000018001b948     libvcruntime:undname.obj
 0002:0000094c       ??_C@_01KMDKNFGN@?1@       000000018001b94c     libvcruntime:undname.obj
 0002:00000950       ??_C@_01FGNFDNOH@?$CF@     000000018001b950     libvcruntime:undname.obj
 0002:00000954       ??_C@_01MNNFJEPP@?$DM@     000000018001b954     libvcruntime:undname.obj
 0002:00000958       ??_C@_02EHCHHCKH@?$DM?$DN@ 000000018001b958     libvcruntime:undname.obj
 0002:0000095c       ??_C@_01PPODPGHN@?$DO@     000000018001b95c     libvcruntime:undname.obj
 0002:00000960       ??_C@_02EEKDKGMJ@?$DO?$DN@ 000000018001b960     libvcruntime:undname.obj
 0002:00000964       ??_C@_01IHBHIGKO@?0@       000000018001b964     libvcruntime:undname.obj
 0002:00000968       ??_C@_02HCKGKOFO@?$CI?$CJ@ 000000018001b968     libvcruntime:undname.obj
 0002:0000096c       ??_C@_01PJKLJHI@?$HO@      000000018001b96c     libvcruntime:undname.obj
 0002:00000970       ??_C@_01JKBOJNNK@?$FO@     000000018001b970     libvcruntime:undname.obj
 0002:00000974       ??_C@_01DNKMNLPK@?$HM@     000000018001b974     libvcruntime:undname.obj
 0002:00000978       ??_C@_02PPKAJPJL@?$CG?$CG@ 000000018001b978     libvcruntime:undname.obj
 0002:0000097c       ??_C@_02NONPIBCD@?$HM?$HM@ 000000018001b97c     libvcruntime:undname.obj
 0002:00000980       ??_C@_02FPIMKNGF@?$CK?$DN@ 000000018001b980     libvcruntime:undname.obj
 0002:00000984       ??_C@_02FOEOMHFC@?$CL?$DN@ 000000018001b984     libvcruntime:undname.obj
 0002:00000988       ??_C@_02FKMDLLOA@?9?$DN@   000000018001b988     libvcruntime:undname.obj
 0002:0000098c       ??_C@_02FJEHGPIO@?1?$DN@   000000018001b98c     libvcruntime:undname.obj
 0002:00000990       ??_C@_02FENAOKFI@?$CF?$DN@ 000000018001b990     libvcruntime:undname.obj
 0002:00000994       ??_C@_03IKFCCPFF@?$DO?$DO?$DN@ 000000018001b994     libvcruntime:undname.obj
 0002:00000998       ??_C@_03CDNPDDLA@?$DM?$DM?$DN@ 000000018001b998     libvcruntime:undname.obj
 0002:0000099c       ??_C@_02FGJGFEAB@?$CG?$DN@ 000000018001b99c     libvcruntime:undname.obj
 0002:000009a0       ??_C@_02DHLNPPGH@?$HM?$DN@ 000000018001b9a0     libvcruntime:undname.obj
 0002:000009a4       ??_C@_02MHEGNOJ@?$FO?$DN@  000000018001b9a4     libvcruntime:undname.obj
 0002:000009a8       ??_C@_09IFPLHPGF@?$GAvftable?8@ 000000018001b9a8     libvcruntime:undname.obj
 0002:000009b8       ??_C@_09BLBHBJP@?$GAvbtable?8@ 000000018001b9b8     libvcruntime:undname.obj
 0002:000009c8       ??_C@_07FEEIOKP@?$GAvcall?8@ 000000018001b9c8     libvcruntime:undname.obj
 0002:000009d0       ??_C@_08LLFFHHDJ@?$GAtypeof?8@ 000000018001b9d0     libvcruntime:undname.obj
 0002:000009e0       ??_C@_0BF@KDPPACIK@?$GAlocal?5static?5guard?8@ 000000018001b9e0     libvcruntime:undname.obj
 0002:000009f8       ??_C@_08OBABFOLI@?$GAstring?8@ 000000018001b9f8     libvcruntime:undname.obj
 0002:00000a08       ??_C@_0BD@JDLKDPAB@?$GAvbase?5destructor?8@ 000000018001ba08     libvcruntime:undname.obj
 0002:00000a20       ??_C@_0BN@DEGPLNFK@?$GAvector?5deleting?5destructor?8@ 000000018001ba20     libvcruntime:undname.obj
 0002:00000a40       ??_C@_0BO@OBMKPJIG@?$GAdefault?5constructor?5closure?8@ 000000018001ba40     libvcruntime:undname.obj
 0002:00000a60       ??_C@_0BN@IMDCHIKM@?$GAscalar?5deleting?5destructor?8@ 000000018001ba60     libvcruntime:undname.obj
 0002:00000a80       ??_C@_0BO@PFGOCPJJ@?$GAvector?5constructor?5iterator?8@ 000000018001ba80     libvcruntime:undname.obj
 0002:00000aa0       ??_C@_0BN@LFPFMEDL@?$GAvector?5destructor?5iterator?8@ 000000018001baa0     libvcruntime:undname.obj
 0002:00000ac0       ??_C@_0CE@IKBNEHA@?$GAvector?5vbase?5constructor?5itera@ 000000018001bac0     libvcruntime:undname.obj
 0002:00000ae8       ??_C@_0BL@NILFHHPC@?$GAvirtual?5displacement?5map?8@ 000000018001bae8     libvcruntime:undname.obj
 0002:00000b08       ??_C@_0CB@JONCMFFK@?$GAeh?5vector?5constructor?5iterator@ 000000018001bb08     libvcruntime:undname.obj
 0002:00000b30       ??_C@_0CA@GCEOPDGL@?$GAeh?5vector?5destructor?5iterator?8@ 000000018001bb30     libvcruntime:undname.obj
 0002:00000b50       ??_C@_0CH@OOJPLCPH@?$GAeh?5vector?5vbase?5constructor?5it@ 000000018001bb50     libvcruntime:undname.obj
 0002:00000b78       ??_C@_0BL@LLKPOHJI@?$GAcopy?5constructor?5closure?8@ 000000018001bb78     libvcruntime:undname.obj
 0002:00000b98       ??_C@_0BA@KBCDOMBN@?$GAudt?5returning?8@ 000000018001bb98     libvcruntime:undname.obj
 0002:00000ba8       ??_C@_03KLGMFNMG@?$GAEH@   000000018001bba8     libvcruntime:undname.obj
 0002:00000bac       ??_C@_05KHLCHHI@?$GARTTI@  000000018001bbac     libvcruntime:undname.obj
 0002:00000bb8       ??_C@_0BA@KKLDJDLB@?$GAlocal?5vftable?8@ 000000018001bbb8     libvcruntime:undname.obj
 0002:00000bc8       ??_C@_0CE@IIHCMGGL@?$GAlocal?5vftable?5constructor?5clos@ 000000018001bbc8     libvcruntime:undname.obj
 0002:00000bec       ??_C@_06FHBGPFGH@?5new?$FL?$FN@ 000000018001bbec     libvcruntime:undname.obj
 0002:00000bf8       ??_C@_09LBNFPBCA@?5delete?$FL?$FN@ 000000018001bbf8     libvcruntime:undname.obj
 0002:00000c08       ??_C@_0P@HJKNJFNN@?$GAomni?5callsig?8@ 000000018001bc08     libvcruntime:undname.obj
 0002:00000c18       ??_C@_0BL@CNOONJFP@?$GAplacement?5delete?5closure?8@ 000000018001bc18     libvcruntime:undname.obj
 0002:00000c38       ??_C@_0BN@CKNJLHMB@?$GAplacement?5delete?$FL?$FN?5closure?8@ 000000018001bc38     libvcruntime:undname.obj
 0002:00000c58       ??_C@_0CG@CFDHKGGD@?$GAmanaged?5vector?5constructor?5ite@ 000000018001bc58     libvcruntime:undname.obj
 0002:00000c80       ??_C@_0CF@IMGKMJNO@?$GAmanaged?5vector?5destructor?5iter@ 000000018001bc80     libvcruntime:undname.obj
 0002:00000ca8       ??_C@_0CG@HLDDJMAG@?$GAeh?5vector?5copy?5constructor?5ite@ 000000018001bca8     libvcruntime:undname.obj
 0002:00000cd0       ??_C@_0CM@FCBBDIGB@?$GAeh?5vector?5vbase?5copy?5construct@ 000000018001bcd0     libvcruntime:undname.obj
 0002:00000d00       ??_C@_0BL@CLIPGLGB@?$GAdynamic?5initializer?5for?5?8@ 000000018001bd00     libvcruntime:undname.obj
 0002:00000d20       ??_C@_0CB@PDBIFEP@?$GAdynamic?5atexit?5destructor?5for?5@ 000000018001bd20     libvcruntime:undname.obj
 0002:00000d48       ??_C@_0CD@CGAJBKEJ@?$GAvector?5copy?5constructor?5iterat@ 000000018001bd48     libvcruntime:undname.obj
 0002:00000d70       ??_C@_0CJ@GJELGAMM@?$GAvector?5vbase?5copy?5constructor?5@ 000000018001bd70     libvcruntime:undname.obj
 0002:00000da0       ??_C@_0CL@FGIJHLCE@?$GAmanaged?5vector?5copy?5constructo@ 000000018001bda0     libvcruntime:undname.obj
 0002:00000dd0       ??_C@_0BM@PMGGMLDN@?$GAlocal?5static?5thread?5guard?8@ 000000018001bdd0     libvcruntime:undname.obj
 0002:00000df0       ??_C@_0N@BDNMDMOL@operator?5?$CC?$CC?5@ 000000018001bdf0     libvcruntime:undname.obj
 0002:00000e00       ??_C@_0BC@GGEBGALA@operator?5co_await@ 000000018001be00     libvcruntime:undname.obj
 0002:00000e18       ??_C@_0BC@DAFEJGAK@?5Type?5Descriptor?8@ 000000018001be18     libvcruntime:undname.obj
 0002:00000e30       ??_C@_0BM@LDKODKLH@?5Base?5Class?5Descriptor?5at?5?$CI@ 000000018001be30     libvcruntime:undname.obj
 0002:00000e50       ??_C@_0BD@LGICGFMM@?5Base?5Class?5Array?8@ 000000018001be50     libvcruntime:undname.obj
 0002:00000e68       ??_C@_0BN@MECKDCOJ@?5Class?5Hierarchy?5Descriptor?8@ 000000018001be68     libvcruntime:undname.obj
 0002:00000e88       ??_C@_0BK@CFCOFLF@?5Complete?5Object?5Locator?8@ 000000018001be88     libvcruntime:undname.obj
 0002:00000ec0       ??_C@_1DM@KHCHBNEB@?$AAa?$AAp?$AAi?$AA?9?$AAm?$AAs?$AA?9?$AAw?$AAi?$AAn?$AA?9?$AAc?$AAo?$AAr?$AAe@ 000000018001bec0     libvcruntime:winapi_downlevel.obj
 0002:00000f00       ??_C@_1DK@LPPGFMPP@?$AAa?$AAp?$AAi?$AA?9?$AAm?$AAs?$AA?9?$AAw?$AAi?$AAn?$AA?9?$AAc?$AAo?$AAr?$AAe@ 000000018001bf00     libvcruntime:winapi_downlevel.obj
 0002:00000f40       ??_C@_1BC@GDMECMAK@?$AAk?$AAe?$AAr?$AAn?$AAe?$AAl?$AA3?$AA2@ 000000018001bf40     libvcruntime:winapi_downlevel.obj
 0002:00000f58       ??_C@_1BA@PFFKHIOG@?$AAa?$AAp?$AAi?$AA?9?$AAm?$AAs?$AA?9@ 000000018001bf58     libvcruntime:winapi_downlevel.obj
 0002:00000f68       ??_C@_1BA@IAIFMGEF@?$AAe?$AAx?$AAt?$AA?9?$AAm?$AAs?$AA?9@ 000000018001bf68     libvcruntime:winapi_downlevel.obj
 0002:00000f80       ??_C@_08KNHFBNJ@FlsAlloc@  000000018001bf80     libvcruntime:winapi_downlevel.obj
 0002:00000f98       ??_C@_07PEJMOBNF@FlsFree@  000000018001bf98     libvcruntime:winapi_downlevel.obj
 0002:00000fa8       ??_C@_0M@GDNOONDI@FlsGetValue@ 000000018001bfa8     libvcruntime:winapi_downlevel.obj
 0002:00000fc0       ??_C@_0M@JCPCPOEF@FlsSetValue@ 000000018001bfc0     libvcruntime:winapi_downlevel.obj
 0002:00000fd8       ??_C@_0BM@HCFOFFN@InitializeCriticalSectionEx@ 000000018001bfd8     libvcruntime:winapi_downlevel.obj
 0002:00001000       format_validation_lookup_table 000000018001c000     libucrt:output.obj
 0002:00001060       ??_C@_1O@CEDCILHN@?$AA?$CI?$AAn?$AAu?$AAl?$AAl?$AA?$CJ?$AA?$AA@ 000000018001c060     libucrt:output.obj
 0002:00001070       ??_C@_06OJHGLDPL@?$CInull?$CJ?$AA@ 000000018001c070     libucrt:output.obj
 0002:000011f0       ??_C@_0EA@FCLIIPNN@Visual?5C?$CL?$CL?5CRT?3?5Not?5enough?5memor@ 000000018001c1f0     libucrt:strerror.obj
 0002:00001230       __acrt_exception_action_table 000000018001c230     libucrt:exception_filter.obj
 0002:000012f0       __acrt_signal_action_table_count 000000018001c2f0     libucrt:exception_filter.obj
 0002:000012f8       __acrt_signal_action_first_fpe_index 000000018001c2f8     libucrt:exception_filter.obj
 0002:00001300       __acrt_signal_action_fpe_count 000000018001c300     libucrt:exception_filter.obj
 0002:00001308       ??_C@_1BI@BGOHAHKC@?$AAm?$AAs?$AAc?$AAo?$AAr?$AAe?$AAe?$AA?4?$AAd?$AAl?$AAl?$AA?$AA@ 000000018001c308     libucrt:exit.obj
 0002:00001320       ??_C@_0P@MIGLKIOC@CorExitProcess?$AA@ 000000018001c320     libucrt:exit.obj
 0002:00001430       __newctype                 000000018001c430     libucrt:ctype.obj
 0002:00001730       __newclmap                 000000018001c730     libucrt:ctype.obj
 0002:000018b0       __newcumap                 000000018001c8b0     libucrt:ctype.obj
 0002:00001a30       __lc_time_c                000000018001ca30     libucrt:nlsdata.obj
 0002:00001cf0       ??_C@_03KOEHGMDN@Sun?$AA@  000000018001ccf0     libucrt:nlsdata.obj
 0002:00001cf4       ??_C@_03PDAGKDH@Mon?$AA@   000000018001ccf4     libucrt:nlsdata.obj
 0002:00001cf8       ??_C@_03NAGEINEP@Tue?$AA@  000000018001ccf8     libucrt:nlsdata.obj
 0002:00001cfc       ??_C@_03MHOMLAJA@Wed?$AA@  000000018001ccfc     libucrt:nlsdata.obj
 0002:00001d00       ??_C@_03IOFIKPDN@Thu?$AA@  000000018001cd00     libucrt:nlsdata.obj
 0002:00001d04       ??_C@_03IDIOELNC@Fri?$AA@  000000018001cd04     libucrt:nlsdata.obj
 0002:00001d08       ??_C@_03FEFJNEK@Sat?$AA@   000000018001cd08     libucrt:nlsdata.obj
 0002:00001d0c       ??_C@_06OOPIFAJ@Sunday?$AA@ 000000018001cd0c     libucrt:nlsdata.obj
 0002:00001d14       ??_C@_06JLEDEDGH@Monday?$AA@ 000000018001cd14     libucrt:nlsdata.obj
 0002:00001d20       ??_C@_07BAAGCFCM@Tuesday?$AA@ 000000018001cd20     libucrt:nlsdata.obj
 0002:00001d28       ??_C@_09DLIGFAKA@Wednesday?$AA@ 000000018001cd28     libucrt:nlsdata.obj
 0002:00001d38       ??_C@_08HACCIKIA@Thursday?$AA@ 000000018001cd38     libucrt:nlsdata.obj
 0002:00001d44       ??_C@_06JECMNKMI@Friday?$AA@ 000000018001cd44     libucrt:nlsdata.obj
 0002:00001d50       ??_C@_08INBOOONO@Saturday?$AA@ 000000018001cd50     libucrt:nlsdata.obj
 0002:00001d5c       ??_C@_03JIHJHPIE@Jan?$AA@  000000018001cd5c     libucrt:nlsdata.obj
 0002:00001d60       ??_C@_03HJBDCHOM@Feb?$AA@  000000018001cd60     libucrt:nlsdata.obj
 0002:00001d64       ??_C@_03ODNJBKGA@Mar?$AA@  000000018001cd64     libucrt:nlsdata.obj
 0002:00001d68       ??_C@_03LEOLGMJP@Apr?$AA@  000000018001cd68     libucrt:nlsdata.obj
 0002:00001d6c       ??_C@_03CNMDKL@May?$AA@    000000018001cd6c     libucrt:nlsdata.obj
 0002:00001d70       ??_C@_03IDFGHECI@Jun?$AA@  000000018001cd70     libucrt:nlsdata.obj
 0002:00001d74       ??_C@_03LBGABGKK@Jul?$AA@  000000018001cd74     libucrt:nlsdata.obj
 0002:00001d78       ??_C@_03IFJFEIGA@Aug?$AA@  000000018001cd78     libucrt:nlsdata.obj
 0002:00001d7c       ??_C@_03GGCAPAJC@Sep?$AA@  000000018001cd7c     libucrt:nlsdata.obj
 0002:00001d80       ??_C@_03BMAOKBAD@Oct?$AA@  000000018001cd80     libucrt:nlsdata.obj
 0002:00001d84       ??_C@_03JPJOFNIA@Nov?$AA@  000000018001cd84     libucrt:nlsdata.obj
 0002:00001d88       ??_C@_03MKABNOCG@Dec?$AA@  000000018001cd88     libucrt:nlsdata.obj
 0002:00001d90       ??_C@_07CGJPFGJA@January?$AA@ 000000018001cd90     libucrt:nlsdata.obj
 0002:00001d98       ??_C@_08GNJGEPFN@February?$AA@ 000000018001cd98     libucrt:nlsdata.obj
 0002:00001da4       ??_C@_05HPCKOFNC@March?$AA@ 000000018001cda4     libucrt:nlsdata.obj
 0002:00001dac       ??_C@_05DMJDNLEJ@April?$AA@ 000000018001cdac     libucrt:nlsdata.obj
 0002:00001db4       ??_C@_04CNLMGBGM@June?$AA@ 000000018001cdb4     libucrt:nlsdata.obj
 0002:00001dbc       ??_C@_04MIEPOIFP@July?$AA@ 000000018001cdbc     libucrt:nlsdata.obj
 0002:00001dc4       ??_C@_06LBBHFDDG@August?$AA@ 000000018001cdc4     libucrt:nlsdata.obj
 0002:00001dd0       ??_C@_09BHHEALKD@September?$AA@ 000000018001cdd0     libucrt:nlsdata.obj
 0002:00001de0       ??_C@_07JJNFCEND@October?$AA@ 000000018001cde0     libucrt:nlsdata.obj
 0002:00001de8       ??_C@_08HCHEGEOA@November?$AA@ 000000018001cde8     libucrt:nlsdata.obj
 0002:00001df8       ??_C@_08EDHMEBNP@December?$AA@ 000000018001cdf8     libucrt:nlsdata.obj
 0002:00001e04       ??_C@_02DEDBPAFC@AM?$AA@   000000018001ce04     libucrt:nlsdata.obj
 0002:00001e08       ??_C@_02CJNFDJBF@PM?$AA@   000000018001ce08     libucrt:nlsdata.obj
 0002:00001e10       ??_C@_08BPBNCDIB@MM?1dd?1yy?$AA@ 000000018001ce10     libucrt:nlsdata.obj
 0002:00001e20       ??_C@_0BE@CKGJFCPC@dddd?0?5MMMM?5dd?0?5yyyy?$AA@ 000000018001ce20     libucrt:nlsdata.obj
 0002:00001e38       ??_C@_08JCCMCCIL@HH?3mm?3ss?$AA@ 000000018001ce38     libucrt:nlsdata.obj
 0002:00001e48       ??_C@_17MBGCMIPB@?$AAS?$AAu?$AAn?$AA?$AA@ 000000018001ce48     libucrt:nlsdata.obj
 0002:00001e50       ??_C@_17KBOMKBF@?$AAM?$AAo?$AAn?$AA?$AA@ 000000018001ce50     libucrt:nlsdata.obj
 0002:00001e58       ??_C@_17BMKGEGOJ@?$AAT?$AAu?$AAe?$AA?$AA@ 000000018001ce58     libucrt:nlsdata.obj
 0002:00001e60       ??_C@_17CJEDCEPE@?$AAW?$AAe?$AAd?$AA?$AA@ 000000018001ce60     libucrt:nlsdata.obj
 0002:00001e68       ??_C@_17PDPHAADD@?$AAT?$AAh?$AAu?$AA?$AA@ 000000018001ce68     libucrt:nlsdata.obj
 0002:00001e70       ??_C@_17HFOLPPLP@?$AAF?$AAr?$AAi?$AA?$AA@ 000000018001ce70     libucrt:nlsdata.obj
 0002:00001e78       ??_C@_17GGIBDPIH@?$AAS?$AAa?$AAt?$AA?$AA@ 000000018001ce78     libucrt:nlsdata.obj
 0002:00001e80       ??_C@_1O@IHNHDHPB@?$AAS?$AAu?$AAn?$AAd?$AAa?$AAy?$AA?$AA@ 000000018001ce80     libucrt:nlsdata.obj
 0002:00001e90       ??_C@_1O@MMNBFLIA@?$AAM?$AAo?$AAn?$AAd?$AAa?$AAy?$AA?$AA@ 000000018001ce90     libucrt:nlsdata.obj
 0002:00001ea0       ??_C@_1BA@ENFBFFEK@?$AAT?$AAu?$AAe?$AAs?$AAd?$AAa?$AAy?$AA?$AA@ 000000018001cea0     libucrt:nlsdata.obj
 0002:00001eb0       ??_C@_1BE@EBOGMDOH@?$AAW?$AAe?$AAd?$AAn?$AAe?$AAs?$AAd?$AAa?$AAy?$AA?$AA@ 000000018001ceb0     libucrt:nlsdata.obj
 0002:00001ec8       ??_C@_1BC@HHMNLIHE@?$AAT?$AAh?$AAu?$AAr?$AAs?$AAd?$AAa?$AAy?$AA?$AA@ 000000018001cec8     libucrt:nlsdata.obj
 0002:00001ee0       ??_C@_1O@PDICJHAG@?$AAF?$AAr?$AAi?$AAd?$AAa?$AAy?$AA?$AA@ 000000018001cee0     libucrt:nlsdata.obj
 0002:00001ef0       ??_C@_1BC@ENMNNPAJ@?$AAS?$AAa?$AAt?$AAu?$AAr?$AAd?$AAa?$AAy?$AA?$AA@ 000000018001cef0     libucrt:nlsdata.obj
 0002:00001f08       ??_C@_17DKNBKCHM@?$AAJ?$AAa?$AAn?$AA?$AA@ 000000018001cf08     libucrt:nlsdata.obj
 0002:00001f10       ??_C@_17LMDJEKJN@?$AAF?$AAe?$AAb?$AA?$AA@ 000000018001cf10     libucrt:nlsdata.obj
 0002:00001f18       ??_C@_17CKNLEDEC@?$AAM?$AAa?$AAr?$AA?$AA@ 000000018001cf18     libucrt:nlsdata.obj
 0002:00001f20       ??_C@_17LFPOIHDD@?$AAA?$AAp?$AAr?$AA?$AA@ 000000018001cf20     libucrt:nlsdata.obj
 0002:00001f28       ??_C@_17PNNKMEED@?$AAM?$AAa?$AAy?$AA?$AA@ 000000018001cf28     libucrt:nlsdata.obj
 0002:00001f30       ??_C@_17KCJGOCPB@?$AAJ?$AAu?$AAn?$AA?$AA@ 000000018001cf30     libucrt:nlsdata.obj
 0002:00001f38       ??_C@_17IJPCKHK@?$AAJ?$AAu?$AAl?$AA?$AA@ 000000018001cf38     libucrt:nlsdata.obj
 0002:00001f40       ??_C@_17ICPELBCN@?$AAA?$AAu?$AAg?$AA?$AA@ 000000018001cf40     libucrt:nlsdata.obj
 0002:00001f48       ??_C@_17HCHCOKMG@?$AAS?$AAe?$AAp?$AA?$AA@ 000000018001cf48     libucrt:nlsdata.obj
 0002:00001f50       ??_C@_17FNLKOI@?$AAO?$AAc?$AAt?$AA?$AA@ 000000018001cf50     libucrt:nlsdata.obj
 0002:00001f58       ??_C@_17BBDMLCIG@?$AAN?$AAo?$AAv?$AA?$AA@ 000000018001cf58     libucrt:nlsdata.obj
 0002:00001f60       ??_C@_17EGKACKIF@?$AAD?$AAe?$AAc?$AA?$AA@ 000000018001cf60     libucrt:nlsdata.obj
 0002:00001f68       ??_C@_1BA@EFMEIEBA@?$AAJ?$AAa?$AAn?$AAu?$AAa?$AAr?$AAy?$AA?$AA@ 000000018001cf68     libucrt:nlsdata.obj
 0002:00001f78       ??_C@_1BC@JGDDFFAM@?$AAF?$AAe?$AAb?$AAr?$AAu?$AAa?$AAr?$AAy?$AA?$AA@ 000000018001cf78     libucrt:nlsdata.obj
 0002:00001f90       ??_C@_1M@IKEENEDF@?$AAM?$AAa?$AAr?$AAc?$AAh?$AA?$AA@ 000000018001cf90     libucrt:nlsdata.obj
 0002:00001fa0       ??_C@_1M@GJNLMHFD@?$AAA?$AAp?$AAr?$AAi?$AAl?$AA?$AA@ 000000018001cfa0     libucrt:nlsdata.obj
 0002:00001fb0       ??_C@_19EPFLPGAP@?$AAJ?$AAu?$AAn?$AAe?$AA?$AA@ 000000018001cfb0     libucrt:nlsdata.obj
 0002:00001fc0       ??_C@_19BIFMLPCD@?$AAJ?$AAu?$AAl?$AAy?$AA?$AA@ 000000018001cfc0     libucrt:nlsdata.obj
 0002:00001fd0       ??_C@_1O@PAHLKOAC@?$AAA?$AAu?$AAg?$AAu?$AAs?$AAt?$AA?$AA@ 000000018001cfd0     libucrt:nlsdata.obj
 0002:00001fe0       ??_C@_1BE@DKAAMBJL@?$AAS?$AAe?$AAp?$AAt?$AAe?$AAm?$AAb?$AAe?$AAr?$AA?$AA@ 000000018001cfe0     libucrt:nlsdata.obj
 0002:00001ff8       ??_C@_1BA@EPANDLNG@?$AAO?$AAc?$AAt?$AAo?$AAb?$AAe?$AAr?$AA?$AA@ 000000018001cff8     libucrt:nlsdata.obj
 0002:00002008       ??_C@_1BC@BGLIFPF@?$AAN?$AAo?$AAv?$AAe?$AAm?$AAb?$AAe?$AAr?$AA?$AA@ 000000018001d008     libucrt:nlsdata.obj
 0002:00002020       ??_C@_1BC@FEMKIFH@?$AAD?$AAe?$AAc?$AAe?$AAm?$AAb?$AAe?$AAr?$AA?$AA@ 000000018001d020     libucrt:nlsdata.obj
 0002:00002034       ??_C@_15ODEHAHHF@?$AAA?$AAM?$AA?$AA@ 000000018001d034     libucrt:nlsdata.obj
 0002:0000203c       ??_C@_15CLMNNGEL@?$AAP?$AAM?$AA?$AA@ 000000018001d03c     libucrt:nlsdata.obj
 0002:00002048       ??_C@_1BC@IEBCMHCM@?$AAM?$AAM?$AA?1?$AAd?$AAd?$AA?1?$AAy?$AAy?$AA?$AA@ 000000018001d048     libucrt:nlsdata.obj
 0002:00002060       ??_C@_1CI@KNAKOEBC@?$AAd?$AAd?$AAd?$AAd?$AA?0?$AA?5?$AAM?$AAM?$AAM?$AAM?$AA?5?$AAd?$AAd?$AA?0?$AA?5?$AAy?$AAy?$AAy?$AAy?$AA?$AA@ 000000018001d060     libucrt:nlsdata.obj
 0002:00002088       ??_C@_1BC@GDGBMEMK@?$AAH?$AAH?$AA?3?$AAm?$AAm?$AA?3?$AAs?$AAs?$AA?$AA@ 000000018001d088     libucrt:nlsdata.obj
 0002:000020a0       ??_C@_1M@BMHNFIME@?$AAe?$AAn?$AA?9?$AAU?$AAS?$AA?$AA@ 000000018001d0a0     libucrt:nlsdata.obj
 0002:000020ac       ??_C@_03OEIAHPBN@INF?$AA@  000000018001d0ac     libucrt:cvt.obj
 0002:000020b0       ??_C@_03OJHLLCGB@inf?$AA@  000000018001d0b0     libucrt:cvt.obj
 0002:000020b4       ??_C@_03LKNCIKJB@NAN?$AA@  000000018001d0b4     libucrt:cvt.obj
 0002:000020b8       ??_C@_03LHCJEHON@nan?$AA@  000000018001d0b8     libucrt:cvt.obj
 0002:000020c0       ??_C@_09OFJJIMPC@NAN?$CISNAN?$CJ?$AA@ 000000018001d0c0     libucrt:cvt.obj
 0002:000020d0       ??_C@_09IPFBKMDL@nan?$CIsnan?$CJ?$AA@ 000000018001d0d0     libucrt:cvt.obj
 0002:000020e0       ??_C@_08IKHNHAJ@NAN?$CIIND?$CJ?$AA@ 000000018001d0e0     libucrt:cvt.obj
 0002:000020f0       ??_C@_08OFCDMILK@nan?$CIind?$CJ?$AA@ 000000018001d0f0     libucrt:cvt.obj
 0002:000020fc       ??_C@_05KLBDPFGC@e?$CL000?$AA@ 000000018001d0fc     libucrt:cvt.obj
 0002:00002110       _sys_errlist               000000018001d110     libucrt:syserr.obj
 0002:00002270       ??_C@_08INEPGKHH@No?5error?$AA@ 000000018001d270     libucrt:syserr.obj
 0002:00002280       ??_C@_0BI@BJFCGOHL@Operation?5not?5permitted?$AA@ 000000018001d280     libucrt:syserr.obj
 0002:00002298       ??_C@_0BK@FMDHKPNF@No?5such?5file?5or?5directory?$AA@ 000000018001d298     libucrt:syserr.obj
 0002:000022b8       ??_C@_0BA@FKIAIBGA@No?5such?5process?$AA@ 000000018001d2b8     libucrt:syserr.obj
 0002:000022c8       ??_C@_0BK@FJBOAFDK@Interrupted?5function?5call?$AA@ 000000018001d2c8     libucrt:syserr.obj
 0002:000022e8       ??_C@_0BD@KKNFOBBD@Input?1output?5error?$AA@ 000000018001d2e8     libucrt:syserr.obj
 0002:00002300       ??_C@_0BK@DPKMCKJ@No?5such?5device?5or?5address?$AA@ 000000018001d300     libucrt:syserr.obj
 0002:00002320       ??_C@_0BC@MFFGCDFL@Arg?5list?5too?5long?$AA@ 000000018001d320     libucrt:syserr.obj
 0002:00002338       ??_C@_0BC@HKPNECK@Exec?5format?5error?$AA@ 000000018001d338     libucrt:syserr.obj
 0002:00002350       ??_C@_0BE@NFGDDCEF@Bad?5file?5descriptor?$AA@ 000000018001d350     libucrt:syserr.obj
 0002:00002368       ??_C@_0BD@LOHELEP@No?5child?5processes?$AA@ 000000018001d368     libucrt:syserr.obj
 0002:00002380       ??_C@_0CB@EPFKGNAK@Resource?5temporarily?5unavailable@ 000000018001d380     libucrt:syserr.obj
 0002:000023a8       ??_C@_0BB@IMDKMPFB@Not?5enough?5space?$AA@ 000000018001d3a8     libucrt:syserr.obj
 0002:000023c0       ??_C@_0BC@HFNFNKAI@Permission?5denied?$AA@ 000000018001d3c0     libucrt:syserr.obj
 0002:000023d8       ??_C@_0M@LOEHLCJD@Bad?5address?$AA@ 000000018001d3d8     libucrt:syserr.obj
 0002:000023e8       ??_C@_0O@NIPGCINC@Unknown?5error?$AA@ 000000018001d3e8     libucrt:syserr.obj
 0002:000023f8       ??_C@_0BA@BIBLIOEK@Resource?5device?$AA@ 000000018001d3f8     libucrt:syserr.obj
 0002:00002408       ??_C@_0M@NAAJNNGH@File?5exists?$AA@ 000000018001d408     libucrt:syserr.obj
 0002:00002418       ??_C@_0O@OAMDNOCP@Improper?5link?$AA@ 000000018001d418     libucrt:syserr.obj
 0002:00002428       ??_C@_0P@NLEIANHE@No?5such?5device?$AA@ 000000018001d428     libucrt:syserr.obj
 0002:00002438       ??_C@_0BA@CJBACOOL@Not?5a?5directory?$AA@ 000000018001d438     libucrt:syserr.obj
 0002:00002448       ??_C@_0P@NDHGCGKE@Is?5a?5directory?$AA@ 000000018001d448     libucrt:syserr.obj
 0002:00002458       ??_C@_0BB@HMGGCEBG@Invalid?5argument?$AA@ 000000018001d458     libucrt:syserr.obj
 0002:00002470       ??_C@_0BO@IIFBODJE@Too?5many?5open?5files?5in?5system?$AA@ 000000018001d470     libucrt:syserr.obj
 0002:00002490       ??_C@_0BE@INBJMKGG@Too?5many?5open?5files?$AA@ 000000018001d490     libucrt:syserr.obj
 0002:000024a8       ??_C@_0CE@ONOKNLPF@Inappropriate?5I?1O?5control?5operat@ 000000018001d4a8     libucrt:syserr.obj
 0002:000024d0       ??_C@_0P@LFMMIPAE@File?5too?5large?$AA@ 000000018001d4d0     libucrt:syserr.obj
 0002:000024e0       ??_C@_0BI@FEALHKLD@No?5space?5left?5on?5device?$AA@ 000000018001d4e0     libucrt:syserr.obj
 0002:000024f8       ??_C@_0N@FEHLOILP@Invalid?5seek?$AA@ 000000018001d4f8     libucrt:syserr.obj
 0002:00002508       ??_C@_0BG@DDBFNKBH@Read?9only?5file?5system?$AA@ 000000018001d508     libucrt:syserr.obj
 0002:00002520       ??_C@_0P@PKCJJLLM@Too?5many?5links?$AA@ 000000018001d520     libucrt:syserr.obj
 0002:00002530       ??_C@_0M@LHEPIIOM@Broken?5pipe?$AA@ 000000018001d530     libucrt:syserr.obj
 0002:00002540       ??_C@_0N@MMJPGLJK@Domain?5error?$AA@ 000000018001d540     libucrt:syserr.obj
 0002:00002550       ??_C@_0BB@FCBJFCAJ@Result?5too?5large?$AA@ 000000018001d550     libucrt:syserr.obj
 0002:00002568       ??_C@_0BK@JAEBMJJM@Resource?5deadlock?5avoided?$AA@ 000000018001d568     libucrt:syserr.obj
 0002:00002588       ??_C@_0BC@BEDIHIDK@Filename?5too?5long?$AA@ 000000018001d588     libucrt:syserr.obj
 0002:000025a0       ??_C@_0BD@CLHBCGPB@No?5locks?5available?$AA@ 000000018001d5a0     libucrt:syserr.obj
 0002:000025b8       ??_C@_0BJ@IHEHINLI@Function?5not?5implemented?$AA@ 000000018001d5b8     libucrt:syserr.obj
 0002:000025d8       ??_C@_0BE@ICMCHPHH@Directory?5not?5empty?$AA@ 000000018001d5d8     libucrt:syserr.obj
 0002:000025f0       ??_C@_0BG@KLEAJEFJ@Illegal?5byte?5sequence?$AA@ 000000018001d5f0     libucrt:syserr.obj
 0002:00002608       _sys_nerr                  000000018001d608     libucrt:syserr.obj
 0002:00002630       ??_C@_1M@HPNHIDJI@?$AAj?$AAa?$AA?9?$AAJ?$AAP?$AA?$AA@ 000000018001d630     libucrt:mbctype.obj
 0002:00002640       ??_C@_1M@BIBDDEMK@?$AAz?$AAh?$AA?9?$AAC?$AAN?$AA?$AA@ 000000018001d640     libucrt:mbctype.obj
 0002:00002650       ??_C@_1M@JLOOOEGK@?$AAk?$AAo?$AA?9?$AAK?$AAR?$AA?$AA@ 000000018001d650     libucrt:mbctype.obj
 0002:00002660       ??_C@_1M@CLNBBOPM@?$AAz?$AAh?$AA?9?$AAT?$AAW?$AA?$AA@ 000000018001d660     libucrt:mbctype.obj
 0002:00002710       ??_C@_1EA@JGEFHKEI@?$AAa?$AAp?$AAi?$AA?9?$AAm?$AAs?$AA?9?$AAw?$AAi?$AAn?$AA?9?$AAc?$AAo?$AAr?$AAe?$AA?9?$AAd?$AAa?$AAt?$AAe?$AAt?$AAi?$AAm?$AAe?$AA?9?$AAl?$AA1?$AA?9?$AA1?$AA?9?$AA1?$AA?$AA@ 000000018001d710     libucrt:winapi_thunks.obj
 0002:00002750       ??_C@_1DM@KHCHBNEB@?$AAa?$AAp?$AAi?$AA?9?$AAm?$AAs?$AA?9?$AAw?$AAi?$AAn?$AA?9?$AAc?$AAo?$AAr?$AAe?$AA?9?$AAf?$AAi?$AAb?$AAe?$AAr?$AAs?$AA?9?$AAl?$AA1?$AA?9?$AA1?$AA?9?$AA1?$AA?$AA@ 000000018001d750     libucrt:winapi_thunks.obj
 0002:00002790       ??_C@_1DI@IJCEHOCB@?$AAa?$AAp?$AAi?$AA?9?$AAm?$AAs?$AA?9?$AAw?$AAi?$AAn?$AA?9?$AAc?$AAo?$AAr?$AAe?$AA?9?$AAf?$AAi?$AAl?$AAe?$AA?9?$AAl?$AA1?$AA?9?$AA2?$AA?9?$AA2?$AA?$AA@ 000000018001d790     libucrt:winapi_thunks.obj
 0002:000027d0       ??_C@_1EI@MPIAOHOC@?$AAa?$AAp?$AAi?$AA?9?$AAm?$AAs?$AA?9?$AAw?$AAi?$AAn?$AA?9?$AAc?$AAo?$AAr?$AAe?$AA?9?$AAl?$AAo?$AAc?$AAa?$AAl?$AAi?$AAz?$AAa?$AAt?$AAi?$AAo?$AAn?$AA?9?$AAl?$AA1?$AA?9@ 000000018001d7d0     libucrt:winapi_thunks.obj
 0002:00002820       ??_C@_1FK@FPHCKFIE@?$AAa?$AAp?$AAi?$AA?9?$AAm?$AAs?$AA?9?$AAw?$AAi?$AAn?$AA?9?$AAc?$AAo?$AAr?$AAe?$AA?9?$AAl?$AAo?$AAc?$AAa?$AAl?$AAi?$AAz?$AAa?$AAt?$AAi?$AAo?$AAn?$AA?9?$AAo?$AAb?$AAs@ 000000018001d820     libucrt:winapi_thunks.obj
 0002:00002880       ??_C@_1EM@DILCGIIO@?$AAa?$AAp?$AAi?$AA?9?$AAm?$AAs?$AA?9?$AAw?$AAi?$AAn?$AA?9?$AAc?$AAo?$AAr?$AAe?$AA?9?$AAp?$AAr?$AAo?$AAc?$AAe?$AAs?$AAs?$AAt?$AAh?$AAr?$AAe?$AAa?$AAd?$AAs?$AA?9?$AAl@ 000000018001d880     libucrt:winapi_thunks.obj
 0002:000028d0       ??_C@_1DM@LNCGDDPN@?$AAa?$AAp?$AAi?$AA?9?$AAm?$AAs?$AA?9?$AAw?$AAi?$AAn?$AA?9?$AAc?$AAo?$AAr?$AAe?$AA?9?$AAs?$AAt?$AAr?$AAi?$AAn?$AAg?$AA?9?$AAl?$AA1?$AA?9?$AA1?$AA?9?$AA0?$AA?$AA@ 000000018001d8d0     libucrt:winapi_thunks.obj
 0002:00002910       ??_C@_1DK@LPPGFMPP@?$AAa?$AAp?$AAi?$AA?9?$AAm?$AAs?$AA?9?$AAw?$AAi?$AAn?$AA?9?$AAc?$AAo?$AAr?$AAe?$AA?9?$AAs?$AAy?$AAn?$AAc?$AAh?$AA?9?$AAl?$AA1?$AA?9?$AA2?$AA?9?$AA0?$AA?$AA@ 000000018001d910     libucrt:winapi_thunks.obj
 0002:00002950       ??_C@_1DO@FPAPJEMD@?$AAa?$AAp?$AAi?$AA?9?$AAm?$AAs?$AA?9?$AAw?$AAi?$AAn?$AA?9?$AAc?$AAo?$AAr?$AAe?$AA?9?$AAs?$AAy?$AAs?$AAi?$AAn?$AAf?$AAo?$AA?9?$AAl?$AA1?$AA?9?$AA2?$AA?9?$AA1?$AA?$AA@ 000000018001d950     libucrt:winapi_thunks.obj
 0002:00002990       ??_C@_1DK@NDHNAHIO@?$AAa?$AAp?$AAi?$AA?9?$AAm?$AAs?$AA?9?$AAw?$AAi?$AAn?$AA?9?$AAc?$AAo?$AAr?$AAe?$AA?9?$AAw?$AAi?$AAn?$AAr?$AAt?$AA?9?$AAl?$AA1?$AA?9?$AA1?$AA?9?$AA0?$AA?$AA@ 000000018001d990     libucrt:winapi_thunks.obj
 0002:000029d0       ??_C@_1DM@KGHDGBCM@?$AAa?$AAp?$AAi?$AA?9?$AAm?$AAs?$AA?9?$AAw?$AAi?$AAn?$AA?9?$AAc?$AAo?$AAr?$AAe?$AA?9?$AAx?$AAs?$AAt?$AAa?$AAt?$AAe?$AA?9?$AAl?$AA2?$AA?9?$AA1?$AA?9?$AA0?$AA?$AA@ 000000018001d9d0     libucrt:winapi_thunks.obj
 0002:00002a10       ??_C@_1EO@IJIOEFOH@?$AAa?$AAp?$AAi?$AA?9?$AAm?$AAs?$AA?9?$AAw?$AAi?$AAn?$AA?9?$AAr?$AAt?$AAc?$AAo?$AAr?$AAe?$AA?9?$AAn?$AAt?$AAu?$AAs?$AAe?$AAr?$AA?9?$AAw?$AAi?$AAn?$AAd?$AAo?$AAw?$AA?9@ 000000018001da10     libucrt:winapi_thunks.obj
 0002:00002a60       ??_C@_1FG@HHGEKANL@?$AAa?$AAp?$AAi?$AA?9?$AAm?$AAs?$AA?9?$AAw?$AAi?$AAn?$AA?9?$AAs?$AAe?$AAc?$AAu?$AAr?$AAi?$AAt?$AAy?$AA?9?$AAs?$AAy?$AAs?$AAt?$AAe?$AAm?$AAf?$AAu?$AAn?$AAc?$AAt?$AAi@ 000000018001da60     libucrt:winapi_thunks.obj
 0002:00002ac0       ??_C@_1EG@DBIOJECG@?$AAe?$AAx?$AAt?$AA?9?$AAm?$AAs?$AA?9?$AAw?$AAi?$AAn?$AA?9?$AAn?$AAt?$AAu?$AAs?$AAe?$AAr?$AA?9?$AAd?$AAi?$AAa?$AAl?$AAo?$AAg?$AAb?$AAo?$AAx?$AA?9?$AAl?$AA1?$AA?9?$AA1@ 000000018001dac0     libucrt:winapi_thunks.obj
 0002:00002b10       ??_C@_1EO@FIHMJCLF@?$AAe?$AAx?$AAt?$AA?9?$AAm?$AAs?$AA?9?$AAw?$AAi?$AAn?$AA?9?$AAn?$AAt?$AAu?$AAs?$AAe?$AAr?$AA?9?$AAw?$AAi?$AAn?$AAd?$AAo?$AAw?$AAs?$AAt?$AAa?$AAt?$AAi?$AAo?$AAn?$AA?9@ 000000018001db10     libucrt:winapi_thunks.obj
 0002:00002b60       ??_C@_1BC@DNHGCMLG@?$AAa?$AAd?$AAv?$AAa?$AAp?$AAi?$AA3?$AA2?$AA?$AA@ 000000018001db60     libucrt:winapi_thunks.obj
 0002:00002b78       ??_C@_1BC@GDMECMAK@?$AAk?$AAe?$AAr?$AAn?$AAe?$AAl?$AA3?$AA2?$AA?$AA@ 000000018001db78     libucrt:winapi_thunks.obj
 0002:00002b90       ??_C@_1M@OAIMIKLP@?$AAn?$AAt?$AAd?$AAl?$AAl?$AA?$AA@ 000000018001db90     libucrt:winapi_thunks.obj
 0002:00002ba0       ??_C@_1EG@DPGNFKGC@?$AAa?$AAp?$AAi?$AA?9?$AAm?$AAs?$AA?9?$AAw?$AAi?$AAn?$AA?9?$AAa?$AAp?$AAp?$AAm?$AAo?$AAd?$AAe?$AAl?$AA?9?$AAr?$AAu?$AAn?$AAt?$AAi?$AAm?$AAe?$AA?9?$AAl?$AA1?$AA?9?$AA1@ 000000018001dba0     libucrt:winapi_thunks.obj
 0002:00002be8       ??_C@_1O@BCCLBEOE@?$AAu?$AAs?$AAe?$AAr?$AA3?$AA2?$AA?$AA@ 000000018001dbe8     libucrt:winapi_thunks.obj
 0002:00002bf8       ??_C@_1BA@PFFKHIOG@?$AAa?$AAp?$AAi?$AA?9?$AAm?$AAs?$AA?9?$AA?$AA@ 000000018001dbf8     libucrt:winapi_thunks.obj
 0002:00002c08       ??_C@_1BA@IAIFMGEF@?$AAe?$AAx?$AAt?$AA?9?$AAm?$AAs?$AA?9?$AA?$AA@ 000000018001dc08     libucrt:winapi_thunks.obj
 0002:00002c20       ??_C@_0BA@FHFNEAED@AreFileApisANSI?$AA@ 000000018001dc20     libucrt:winapi_thunks.obj
 0002:00002c38       ??_C@_08KNHFBNJ@FlsAlloc?$AA@ 000000018001dc38     libucrt:winapi_thunks.obj
 0002:00002c50       ??_C@_07PEJMOBNF@FlsFree?$AA@ 000000018001dc50     libucrt:winapi_thunks.obj
 0002:00002c60       ??_C@_0M@GDNOONDI@FlsGetValue?$AA@ 000000018001dc60     libucrt:winapi_thunks.obj
 0002:00002c78       ??_C@_0M@JCPCPOEF@FlsSetValue?$AA@ 000000018001dc78     libucrt:winapi_thunks.obj
 0002:00002c90       ??_C@_0BM@HCFOFFN@InitializeCriticalSectionEx?$AA@ 000000018001dc90     libucrt:winapi_thunks.obj
 0002:00002cb8       ??_C@_0O@KKBNKAPF@LCMapStringEx?$AA@ 000000018001dcb8     libucrt:winapi_thunks.obj
 0002:00002cd0       ??_C@_0BB@HBDEELFH@LocaleNameToLCID?$AA@ 000000018001dcd0     libucrt:winapi_thunks.obj
 0002:00002ce8       ??_C@_0CF@OJOFEIGO@AppPolicyGetProcessTerminationMe@ 000000018001dce8     libucrt:winapi_thunks.obj
 0002:00002d10       ??_C@_15PJPFLCCM@?$AAu?$AAk?$AA?$AA@ 000000018001dd10     libucrt:get_qualified_locale.obj
 0002:00002d16       ??_C@_00CNPNBAHC@?$AA@     000000018001dd16     libucrt:mbrtowc.obj
 0002:00002d20       ?large_power_data@?1??multiply_by_power_of_ten@__crt_strtox@@YA_NAEAUbig_integer@2@I@Z@4QBIB 000000018001dd20     libucrt:cfout.obj
 0002:00003630       ?large_power_indices@?1??multiply_by_power_of_ten@__crt_strtox@@YA_NAEAUbig_integer@2@I@Z@4QBUunpack_index@?1??12@YA_N0I@Z@B 000000018001e630     libucrt:cfout.obj
 0002:000036c8       ?small_powers_of_ten@?1??multiply_by_power_of_ten@__crt_strtox@@YA_NAEAUbig_integer@2@I@Z@4QBIB 000000018001e6c8     libucrt:cfout.obj
 0002:000036ec       ??_C@_01GBGANLPD@0?$AA@    000000018001e6ec     libucrt:cfout.obj
 0002:000036f0       ??_C@_05DNEBIAHO@1?$CDINF?$AA@ 000000018001e6f0     libucrt:cfout.obj
 0002:000036f8       ??_C@_06IMKFLFPG@1?$CDQNAN?$AA@ 000000018001e6f8     libucrt:cfout.obj
 0002:00003700       ??_C@_06PGGFOGJG@1?$CDSNAN?$AA@ 000000018001e700     libucrt:cfout.obj
 0002:00003708       ??_C@_05PHHOCPM@1?$CDIND?$AA@ 000000018001e708     libucrt:cfout.obj
 0002:00004550       ??_C@_15EMKDOKLE@?$AAa?$AAr?$AA?$AA@ 000000018001f550     libucrt:lcidtoname_downlevel.obj
 0002:00004558       ??_C@_15KNPADPLH@?$AAb?$AAg?$AA?$AA@ 000000018001f558     libucrt:lcidtoname_downlevel.obj
 0002:00004560       ??_C@_15EDMHLDMO@?$AAc?$AAa?$AA?$AA@ 000000018001f560     libucrt:lcidtoname_downlevel.obj
 0002:00004568       ??_C@_1O@BPEAJADD@?$AAz?$AAh?$AA?9?$AAC?$AAH?$AAS?$AA?$AA@ 000000018001f568     libucrt:lcidtoname_downlevel.obj
 0002:00004578       ??_C@_15LJNHCMNK@?$AAc?$AAs?$AA?$AA@ 000000018001f578     libucrt:lcidtoname_downlevel.obj
 0002:00004580       ??_C@_15FOMCIDHG@?$AAd?$AAa?$AA?$AA@ 000000018001f580     libucrt:lcidtoname_downlevel.obj
 0002:00004588       ??_C@_15NBKABECB@?$AAd?$AAe?$AA?$AA@ 000000018001f588     libucrt:lcidtoname_downlevel.obj
 0002:00004590       ??_C@_15GHPEIIAO@?$AAe?$AAl?$AA?$AA@ 000000018001f590     libucrt:lcidtoname_downlevel.obj
 0002:00004598       ??_C@_15MNPNEAIF@?$AAe?$AAn?$AA?$AA@ 000000018001f598     libucrt:lcidtoname_downlevel.obj
 0002:000045a0       ??_C@_15GPIOMPMH@?$AAe?$AAs?$AA?$AA@ 000000018001f5a0     libucrt:lcidtoname_downlevel.obj
 0002:000045a8       ??_C@_15NGLOAKJC@?$AAf?$AAi?$AA?$AA@ 000000018001f5a8     libucrt:lcidtoname_downlevel.obj
 0002:000045b0       ??_C@_15FBKGNKAM@?$AAf?$AAr?$AA?$AA@ 000000018001f5b0     libucrt:lcidtoname_downlevel.obj
 0002:000045b8       ??_C@_15KGGCNEFK@?$AAh?$AAe?$AA?$AA@ 000000018001f5b8     libucrt:lcidtoname_downlevel.obj
 0002:000045c0       ??_C@_15PGHLIDMF@?$AAh?$AAu?$AA?$AA@ 000000018001f5c0     libucrt:lcidtoname_downlevel.obj
 0002:000045c8       ??_C@_15BIEMAPLM@?$AAi?$AAs?$AA?$AA@ 000000018001f5c8     libucrt:lcidtoname_downlevel.obj
 0002:000045d0       ??_C@_15IFJLDHAF@?$AAi?$AAt?$AA?$AA@ 000000018001f5d0     libucrt:lcidtoname_downlevel.obj
 0002:000045d8       ??_C@_15GEMIOCAG@?$AAj?$AAa?$AA?$AA@ 000000018001f5d8     libucrt:lcidtoname_downlevel.obj
 0002:000045e0       ??_C@_15EPELEGJA@?$AAk?$AAo?$AA?$AA@ 000000018001f5e0     libucrt:lcidtoname_downlevel.obj
 0002:000045e8       ??_C@_15NDDHIMN@?$AAn?$AAl?$AA?$AA@ 000000018001f5e8     libucrt:lcidtoname_downlevel.obj
 0002:000045f0       ??_C@_15BPIGNHCD@?$AAn?$AAo?$AA?$AA@ 000000018001f5f0     libucrt:lcidtoname_downlevel.obj
 0002:000045f8       ??_C@_15DEOPBLCG@?$AAp?$AAl?$AA?$AA@ 000000018001f5f8     libucrt:lcidtoname_downlevel.obj
 0002:00004600       ??_C@_15KBECGEFG@?$AAp?$AAt?$AA?$AA@ 000000018001f600     libucrt:lcidtoname_downlevel.obj
 0002:00004608       ??_C@_15GLJCBFMD@?$AAr?$AAo?$AA?$AA@ 000000018001f608     libucrt:lcidtoname_downlevel.obj
 0002:00004610       ??_C@_15FEDGKCDI@?$AAr?$AAu?$AA?$AA@ 000000018001f610     libucrt:lcidtoname_downlevel.obj
 0002:00004618       ??_C@_15GLKMLLHM@?$AAh?$AAr?$AA?$AA@ 000000018001f618     libucrt:lcidtoname_downlevel.obj
 0002:00004620       ??_C@_15CPKMFBDB@?$AAs?$AAk?$AA?$AA@ 000000018001f620     libucrt:lcidtoname_downlevel.obj
 0002:00004628       ??_C@_15BAAIOGMK@?$AAs?$AAq?$AA?$AA@ 000000018001f628     libucrt:lcidtoname_downlevel.obj
 0002:00004630       ??_C@_15INNPNOHD@?$AAs?$AAv?$AA?$AA@ 000000018001f630     libucrt:lcidtoname_downlevel.obj
 0002:00004638       ??_C@_15CABMMOGH@?$AAt?$AAh?$AA?$AA@ 000000018001f638     libucrt:lcidtoname_downlevel.obj
 0002:00004640       ??_C@_15BPLIHJJM@?$AAt?$AAr?$AA?$AA@ 000000018001f640     libucrt:lcidtoname_downlevel.obj
 0002:00004648       ??_C@_15NEOEKKDJ@?$AAu?$AAr?$AA?$AA@ 000000018001f648     libucrt:lcidtoname_downlevel.obj
 0002:00004650       ??_C@_15NFICGAJK@?$AAi?$AAd?$AA?$AA@ 000000018001f650     libucrt:lcidtoname_downlevel.obj
 0002:00004658       ??_C@_15HPJPHDM@?$AAb?$AAe?$AA?$AA@ 000000018001f658     libucrt:lcidtoname_downlevel.obj
 0002:00004660       ??_C@_15LCHLGJII@?$AAs?$AAl?$AA?$AA@ 000000018001f660     libucrt:lcidtoname_downlevel.obj
 0002:00004668       ??_C@_15PCFJPHHO@?$AAe?$AAt?$AA?$AA@ 000000018001f668     libucrt:lcidtoname_downlevel.obj
 0002:00004670       ??_C@_15HPFPGODN@?$AAl?$AAv?$AA?$AA@ 000000018001f670     libucrt:lcidtoname_downlevel.obj
 0002:00004678       ??_C@_15NFFGKGLG@?$AAl?$AAt?$AA?$AA@ 000000018001f678     libucrt:lcidtoname_downlevel.obj
 0002:00004680       ??_C@_15BDAKCCHN@?$AAf?$AAa?$AA?$AA@ 000000018001f680     libucrt:lcidtoname_downlevel.obj
 0002:00004688       ??_C@_15NFGIAIAJ@?$AAv?$AAi?$AA?$AA@ 000000018001f688     libucrt:lcidtoname_downlevel.obj
 0002:00004690       ??_C@_15LMKNDMHN@?$AAh?$AAy?$AA?$AA@ 000000018001f690     libucrt:lcidtoname_downlevel.obj
 0002:00004698       ??_C@_15IJBHMCFL@?$AAa?$AAz?$AA?$AA@ 000000018001f698     libucrt:lcidtoname_downlevel.obj
 0002:000046a0       ??_C@_15EKOFJABL@?$AAe?$AAu?$AA?$AA@ 000000018001f6a0     libucrt:lcidtoname_downlevel.obj
 0002:000046a8       ??_C@_15BGHADCNK@?$AAm?$AAk?$AA?$AA@ 000000018001f6a8     libucrt:lcidtoname_downlevel.obj
 0002:000046b0       ??_C@_15JDNICKHM@?$AAa?$AAf?$AA?$AA@ 000000018001f6b0     libucrt:lcidtoname_downlevel.obj
 0002:000046b8       ??_C@_15KPJEDBKD@?$AAk?$AAa?$AA?$AA@ 000000018001f6b8     libucrt:lcidtoname_downlevel.obj
 0002:000046c0       ??_C@_15PDNFFFEO@?$AAf?$AAo?$AA?$AA@ 000000018001f6c0     libucrt:lcidtoname_downlevel.obj
 0002:000046c8       ??_C@_15OMLEGLOC@?$AAh?$AAi?$AA?$AA@ 000000018001f6c8     libucrt:lcidtoname_downlevel.obj
 0002:000046d0       ??_C@_15IDNNENKK@?$AAm?$AAs?$AA?$AA@ 000000018001f6d0     libucrt:lcidtoname_downlevel.obj
 0002:000046d8       ??_C@_15MACJNBMH@?$AAk?$AAk?$AA?$AA@ 000000018001f6d8     libucrt:lcidtoname_downlevel.obj
 0002:000046e0       ??_C@_15DKDJEOND@?$AAk?$AAy?$AA?$AA@ 000000018001f6e0     libucrt:lcidtoname_downlevel.obj
 0002:000046e8       ??_C@_15DFGDLJBG@?$AAs?$AAw?$AA?$AA@ 000000018001f6e8     libucrt:lcidtoname_downlevel.obj
 0002:000046f0       ??_C@_15BBFAICNG@?$AAu?$AAz?$AA?$AA@ 000000018001f6f0     libucrt:lcidtoname_downlevel.obj
 0002:000046f8       ??_C@_15DKNDCGEA@?$AAt?$AAt?$AA?$AA@ 000000018001f6f8     libucrt:lcidtoname_downlevel.obj
 0002:00004700       ??_C@_15MGIFMDPL@?$AAp?$AAa?$AA?$AA@ 000000018001f700     libucrt:lcidtoname_downlevel.obj
 0002:00004708       ??_C@_15HCNDBBA@?$AAg?$AAu?$AA?$AA@ 000000018001f708     libucrt:lcidtoname_downlevel.obj
 0002:00004710       ??_C@_15FNBEIBON@?$AAt?$AAa?$AA?$AA@ 000000018001f710     libucrt:lcidtoname_downlevel.obj
 0002:00004718       ??_C@_15NCHGBGLK@?$AAt?$AAe?$AA?$AA@ 000000018001f718     libucrt:lcidtoname_downlevel.obj
 0002:00004720       ??_C@_15PHPHCBPF@?$AAk?$AAn?$AA?$AA@ 000000018001f720     libucrt:lcidtoname_downlevel.obj
 0002:00004728       ??_C@_15DLGBCKMP@?$AAm?$AAr?$AA?$AA@ 000000018001f728     libucrt:lcidtoname_downlevel.obj
 0002:00004730       ??_C@_15EABBLBFF@?$AAs?$AAa?$AA?$AA@ 000000018001f730     libucrt:lcidtoname_downlevel.obj
 0002:00004738       ??_C@_15CBKOMCOI@?$AAm?$AAn?$AA?$AA@ 000000018001f738     libucrt:lcidtoname_downlevel.obj
 0002:00004740       ??_C@_15CKDMCJAF@?$AAg?$AAl?$AA?$AA@ 000000018001f740     libucrt:lcidtoname_downlevel.obj
 0002:00004748       ??_C@_17CNJFBPG@?$AAk?$AAo?$AAk?$AA?$AA@ 000000018001f748     libucrt:lcidtoname_downlevel.obj
 0002:00004750       ??_C@_17FFBJICPL@?$AAs?$AAy?$AAr?$AA?$AA@ 000000018001f750     libucrt:lcidtoname_downlevel.obj
 0002:00004758       ??_C@_17KPNDCPAF@?$AAd?$AAi?$AAv?$AA?$AA@ 000000018001f758     libucrt:lcidtoname_downlevel.obj
 0002:00004760       ??_C@_11LOCGONAA@?$AA?$AA@ 000000018001f760     libucrt:lcidtoname_downlevel.obj
 0002:00004768       ??_C@_1M@OKAHONE@?$AAa?$AAr?$AA?9?$AAS?$AAA?$AA?$AA@ 000000018001f768     libucrt:lcidtoname_downlevel.obj
 0002:00004778       ??_C@_1M@FFFIGIGK@?$AAb?$AAg?$AA?9?$AAB?$AAG?$AA?$AA@ 000000018001f778     libucrt:lcidtoname_downlevel.obj
 0002:00004788       ??_C@_1M@BJNKEDC@?$AAc?$AAa?$AA?9?$AAE?$AAS?$AA?$AA@ 000000018001f788     libucrt:lcidtoname_downlevel.obj
 0002:00004798       ??_C@_1M@IJJHFJHA@?$AAc?$AAs?$AA?9?$AAC?$AAZ?$AA?$AA@ 000000018001f798     libucrt:lcidtoname_downlevel.obj
 0002:000047a8       ??_C@_1M@CLPEOBGI@?$AAd?$AAa?$AA?9?$AAD?$AAK?$AA?$AA@ 000000018001f7a8     libucrt:lcidtoname_downlevel.obj
 0002:000047b8       ??_C@_1M@MCMADGCB@?$AAd?$AAe?$AA?9?$AAD?$AAE?$AA?$AA@ 000000018001f7b8     libucrt:lcidtoname_downlevel.obj
 0002:000047c8       ??_C@_1M@OOCKEMAM@?$AAe?$AAl?$AA?9?$AAG?$AAR?$AA?$AA@ 000000018001f7c8     libucrt:lcidtoname_downlevel.obj
 0002:000047d8       ??_C@_1M@DDNJFGID@?$AAf?$AAi?$AA?9?$AAF?$AAI?$AA?$AA@ 000000018001f7d8     libucrt:lcidtoname_downlevel.obj
 0002:000047e8       ??_C@_1M@GLIPPMAC@?$AAf?$AAr?$AA?9?$AAF?$AAR?$AA?$AA@ 000000018001f7e8     libucrt:lcidtoname_downlevel.obj
 0002:000047f8       ??_C@_1M@GFMCHPE@?$AAh?$AAe?$AA?9?$AAI?$AAL?$AA?$AA@ 000000018001f7f8     libucrt:lcidtoname_downlevel.obj
 0002:00004808       ??_C@_1M@MHLPGNKM@?$AAh?$AAu?$AA?9?$AAH?$AAU?$AA?$AA@ 000000018001f808     libucrt:lcidtoname_downlevel.obj
 0002:00004818       ??_C@_1M@LPDDNNPN@?$AAi?$AAs?$AA?9?$AAI?$AAS?$AA?$AA@ 000000018001f818     libucrt:lcidtoname_downlevel.obj
 0002:00004828       ??_C@_1M@MADIPODN@?$AAi?$AAt?$AA?9?$AAI?$AAT?$AA?$AA@ 000000018001f828     libucrt:lcidtoname_downlevel.obj
 0002:00004838       ??_C@_1M@IHBJJGG@?$AAn?$AAl?$AA?9?$AAN?$AAL?$AA?$AA@ 000000018001f838     libucrt:lcidtoname_downlevel.obj
 0002:00004848       ??_C@_1M@EANAGDL@?$AAn?$AAb?$AA?9?$AAN?$AAO?$AA?$AA@ 000000018001f848     libucrt:lcidtoname_downlevel.obj
 0002:00004858       ??_C@_1M@NEIEMEGP@?$AAp?$AAl?$AA?9?$AAP?$AAL?$AA?$AA@ 000000018001f858     libucrt:lcidtoname_downlevel.obj
 0002:00004868       ??_C@_1M@BOCFIGEP@?$AAp?$AAt?$AA?9?$AAB?$AAR?$AA?$AA@ 000000018001f868     libucrt:lcidtoname_downlevel.obj
 0002:00004878       ??_C@_1M@IMPFOPBG@?$AAr?$AAo?$AA?9?$AAR?$AAO?$AA?$AA@ 000000018001f878     libucrt:lcidtoname_downlevel.obj
 0002:00004888       ??_C@_1M@IDNNEJMM@?$AAr?$AAu?$AA?9?$AAR?$AAU?$AA?$AA@ 000000018001f888     libucrt:lcidtoname_downlevel.obj
 0002:00004898       ??_C@_1M@LILEEOGM@?$AAh?$AAr?$AA?9?$AAH?$AAR?$AA?$AA@ 000000018001f898     libucrt:lcidtoname_downlevel.obj
 0002:000048a8       ??_C@_1M@FKIFEHPB@?$AAs?$AAk?$AA?9?$AAS?$AAK?$AA?$AA@ 000000018001f8a8     libucrt:lcidtoname_downlevel.obj
 0002:000048b8       ??_C@_1M@LJMAMNPJ@?$AAs?$AAq?$AA?9?$AAA?$AAL?$AA?$AA@ 000000018001f8b8     libucrt:lcidtoname_downlevel.obj
 0002:000048c8       ??_C@_1M@GIAKDKJK@?$AAs?$AAv?$AA?9?$AAS?$AAE?$AA?$AA@ 000000018001f8c8     libucrt:lcidtoname_downlevel.obj
 0002:000048d8       ??_C@_1M@MKJKIKCL@?$AAt?$AAh?$AA?9?$AAT?$AAH?$AA?$AA@ 000000018001f8d8     libucrt:lcidtoname_downlevel.obj
 0002:000048e8       ??_C@_1M@MFLCCMPB@?$AAt?$AAr?$AA?9?$AAT?$AAR?$AA?$AA@ 000000018001f8e8     libucrt:lcidtoname_downlevel.obj
 0002:000048f8       ??_C@_1M@OIJHDKJN@?$AAu?$AAr?$AA?9?$AAP?$AAK?$AA?$AA@ 000000018001f8f8     libucrt:lcidtoname_downlevel.obj
 0002:00004908       ??_C@_1M@LHIPCIEK@?$AAi?$AAd?$AA?9?$AAI?$AAD?$AA?$AA@ 000000018001f908     libucrt:lcidtoname_downlevel.obj
 0002:00004918       ??_C@_1M@MFMOBGI@?$AAu?$AAk?$AA?9?$AAU?$AAA?$AA?$AA@ 000000018001f918     libucrt:lcidtoname_downlevel.obj
 0002:00004928       ??_C@_1M@OBGLJIPL@?$AAb?$AAe?$AA?9?$AAB?$AAY?$AA?$AA@ 000000018001f928     libucrt:lcidtoname_downlevel.obj
 0002:00004938       ??_C@_1M@BCFAJEAD@?$AAs?$AAl?$AA?9?$AAS?$AAI?$AA?$AA@ 000000018001f938     libucrt:lcidtoname_downlevel.obj
 0002:00004948       ??_C@_1M@FKFFEDDN@?$AAe?$AAt?$AA?9?$AAE?$AAE?$AA?$AA@ 000000018001f948     libucrt:lcidtoname_downlevel.obj
 0002:00004958       ??_C@_1M@KGKKAACI@?$AAl?$AAv?$AA?9?$AAL?$AAV?$AA?$AA@ 000000018001f958     libucrt:lcidtoname_downlevel.obj
 0002:00004968       ??_C@_1M@IFGBIJO@?$AAl?$AAt?$AA?9?$AAL?$AAT?$AA?$AA@ 000000018001f968     libucrt:lcidtoname_downlevel.obj
 0002:00004978       ??_C@_1M@FGEAHEDM@?$AAf?$AAa?$AA?9?$AAI?$AAR?$AA?$AA@ 000000018001f978     libucrt:lcidtoname_downlevel.obj
 0002:00004988       ??_C@_1M@KBMAIBFN@?$AAv?$AAi?$AA?9?$AAV?$AAN?$AA?$AA@ 000000018001f988     libucrt:lcidtoname_downlevel.obj
 0002:00004998       ??_C@_1M@GPCBKDJK@?$AAh?$AAy?$AA?9?$AAA?$AAM?$AA?$AA@ 000000018001f998     libucrt:lcidtoname_downlevel.obj
 0002:000049a8       ??_C@_1BG@BECMDDJB@?$AAa?$AAz?$AA?9?$AAA?$AAZ?$AA?9?$AAL?$AAa?$AAt?$AAn?$AA?$AA@ 000000018001f9a8     libucrt:lcidtoname_downlevel.obj
 0002:000049c0       ??_C@_1M@MAOFCAEA@?$AAe?$AAu?$AA?9?$AAE?$AAS?$AA?$AA@ 000000018001f9c0     libucrt:lcidtoname_downlevel.obj
 0002:000049d0       ??_C@_1M@IGHABKPI@?$AAm?$AAk?$AA?9?$AAM?$AAK?$AA?$AA@ 000000018001f9d0     libucrt:lcidtoname_downlevel.obj
 0002:000049e0       ??_C@_1M@IAIGNEJG@?$AAt?$AAn?$AA?9?$AAZ?$AAA?$AA?$AA@ 000000018001f9e0     libucrt:lcidtoname_downlevel.obj
 0002:000049f0       ??_C@_1M@IIJCOJFA@?$AAx?$AAh?$AA?9?$AAZ?$AAA?$AA?$AA@ 000000018001f9f0     libucrt:lcidtoname_downlevel.obj
 0002:00004a00       ??_C@_1M@LGPJHNJH@?$AAz?$AAu?$AA?9?$AAZ?$AAA?$AA?$AA@ 000000018001fa00     libucrt:lcidtoname_downlevel.obj
 0002:00004a10       ??_C@_1M@HOKAOIO@?$AAa?$AAf?$AA?9?$AAZ?$AAA?$AA?$AA@ 000000018001fa10     libucrt:lcidtoname_downlevel.obj
 0002:00004a20       ??_C@_1M@DPCLHLIE@?$AAk?$AAa?$AA?9?$AAG?$AAE?$AA?$AA@ 000000018001fa20     libucrt:lcidtoname_downlevel.obj
 0002:00004a30       ??_C@_1M@BLKMHJBI@?$AAf?$AAo?$AA?9?$AAF?$AAO?$AA?$AA@ 000000018001fa30     libucrt:lcidtoname_downlevel.obj
 0002:00004a40       ??_C@_1M@LGGJAPPB@?$AAh?$AAi?$AA?9?$AAI?$AAN?$AA?$AA@ 000000018001fa40     libucrt:lcidtoname_downlevel.obj
 0002:00004a50       ??_C@_1M@FIKPIHFE@?$AAm?$AAt?$AA?9?$AAM?$AAT?$AA?$AA@ 000000018001fa50     libucrt:lcidtoname_downlevel.obj
 0002:00004a60       ??_C@_1M@HEGGPBFA@?$AAs?$AAe?$AA?9?$AAN?$AAO?$AA?$AA@ 000000018001fa60     libucrt:lcidtoname_downlevel.obj
 0002:00004a70       ??_C@_1M@EIBJEEPA@?$AAm?$AAs?$AA?9?$AAM?$AAY?$AA?$AA@ 000000018001fa70     libucrt:lcidtoname_downlevel.obj
 0002:00004a80       ??_C@_1M@FHLBGMPP@?$AAk?$AAk?$AA?9?$AAK?$AAZ?$AA?$AA@ 000000018001fa80     libucrt:lcidtoname_downlevel.obj
 0002:00004a90       ??_C@_1M@NGJJLCGI@?$AAk?$AAy?$AA?9?$AAK?$AAG?$AA?$AA@ 000000018001fa90     libucrt:lcidtoname_downlevel.obj
 0002:00004aa0       ??_C@_1M@GIENNBFC@?$AAs?$AAw?$AA?9?$AAK?$AAE?$AA?$AA@ 000000018001faa0     libucrt:lcidtoname_downlevel.obj
 0002:00004ab0       ??_C@_1BG@NDGMJIMJ@?$AAu?$AAz?$AA?9?$AAU?$AAZ?$AA?9?$AAL?$AAa?$AAt?$AAn?$AA?$AA@ 000000018001fab0     libucrt:lcidtoname_downlevel.obj
 0002:00004ac8       ??_C@_1M@IDCCIHBC@?$AAt?$AAt?$AA?9?$AAR?$AAU?$AA?$AA@ 000000018001fac8     libucrt:lcidtoname_downlevel.obj
 0002:00004ad8       ??_C@_1M@LOICPMOJ@?$AAb?$AAn?$AA?9?$AAI?$AAN?$AA?$AA@ 000000018001fad8     libucrt:lcidtoname_downlevel.obj
 0002:00004ae8       ??_C@_1M@KPKKNEAH@?$AAp?$AAa?$AA?9?$AAI?$AAN?$AA?$AA@ 000000018001fae8     libucrt:lcidtoname_downlevel.obj
 0002:00004af8       ??_C@_1M@PJGPPBOG@?$AAg?$AAu?$AA?9?$AAI?$AAN?$AA?$AA@ 000000018001faf8     libucrt:lcidtoname_downlevel.obj
 0002:00004b08       ??_C@_1M@KMKMOPHI@?$AAt?$AAa?$AA?9?$AAI?$AAN?$AA?$AA@ 000000018001fb08     libucrt:lcidtoname_downlevel.obj
 0002:00004b18       ??_C@_1M@KFEHEPAC@?$AAt?$AAe?$AA?9?$AAI?$AAN?$AA?$AA@ 000000018001fb18     libucrt:lcidtoname_downlevel.obj
 0002:00004b28       ??_C@_1M@CDCLMGHI@?$AAk?$AAn?$AA?9?$AAI?$AAN?$AA?$AA@ 000000018001fb28     libucrt:lcidtoname_downlevel.obj
 0002:00004b38       ??_C@_1M@MIODLDKF@?$AAm?$AAl?$AA?9?$AAI?$AAN?$AA?$AA@ 000000018001fb38     libucrt:lcidtoname_downlevel.obj
 0002:00004b48       ??_C@_1M@PBIEACPO@?$AAm?$AAr?$AA?9?$AAI?$AAN?$AA?$AA@ 000000018001fb48     libucrt:lcidtoname_downlevel.obj
 0002:00004b58       ??_C@_1M@NIDEAGPH@?$AAs?$AAa?$AA?9?$AAI?$AAN?$AA?$AA@ 000000018001fb58     libucrt:lcidtoname_downlevel.obj
 0002:00004b68       ??_C@_1M@FHIHCBIO@?$AAm?$AAn?$AA?9?$AAM?$AAN?$AA?$AA@ 000000018001fb68     libucrt:lcidtoname_downlevel.obj
 0002:00004b78       ??_C@_1M@JAIJPENP@?$AAc?$AAy?$AA?9?$AAG?$AAB?$AA?$AA@ 000000018001fb78     libucrt:lcidtoname_downlevel.obj
 0002:00004b88       ??_C@_1M@PHGFBEPN@?$AAg?$AAl?$AA?9?$AAE?$AAS?$AA?$AA@ 000000018001fb88     libucrt:lcidtoname_downlevel.obj
 0002:00004b98       ??_C@_1O@KPIPDNCP@?$AAk?$AAo?$AAk?$AA?9?$AAI?$AAN?$AA?$AA@ 000000018001fb98     libucrt:lcidtoname_downlevel.obj
 0002:00004ba8       ??_C@_1O@KNHJLDJA@?$AAs?$AAy?$AAr?$AA?9?$AAS?$AAY?$AA?$AA@ 000000018001fba8     libucrt:lcidtoname_downlevel.obj
 0002:00004bb8       ??_C@_1O@MKEKBLAH@?$AAd?$AAi?$AAv?$AA?9?$AAM?$AAV?$AA?$AA@ 000000018001fbb8     libucrt:lcidtoname_downlevel.obj
 0002:00004bc8       ??_C@_1O@OHDCKDDF@?$AAq?$AAu?$AAz?$AA?9?$AAB?$AAO?$AA?$AA@ 000000018001fbc8     libucrt:lcidtoname_downlevel.obj
 0002:00004bd8       ??_C@_1M@LEPJNLFD@?$AAn?$AAs?$AA?9?$AAZ?$AAA?$AA?$AA@ 000000018001fbd8     libucrt:lcidtoname_downlevel.obj
 0002:00004be8       ??_C@_1M@OMLEIIJB@?$AAm?$AAi?$AA?9?$AAN?$AAZ?$AA?$AA@ 000000018001fbe8     libucrt:lcidtoname_downlevel.obj
 0002:00004bf8       ??_C@_1M@PMPEAILG@?$AAa?$AAr?$AA?9?$AAI?$AAQ?$AA?$AA@ 000000018001fbf8     libucrt:lcidtoname_downlevel.obj
 0002:00004c08       ??_C@_1M@CNKPNOEE@?$AAd?$AAe?$AA?9?$AAC?$AAH?$AA?$AA@ 000000018001fc08     libucrt:lcidtoname_downlevel.obj
 0002:00004c18       ??_C@_1M@LKMGMLKO@?$AAe?$AAn?$AA?9?$AAG?$AAB?$AA?$AA@ 000000018001fc18     libucrt:lcidtoname_downlevel.obj
 0002:00004c28       ??_C@_1M@PGKJFFGL@?$AAe?$AAs?$AA?9?$AAM?$AAX?$AA?$AA@ 000000018001fc28     libucrt:lcidtoname_downlevel.obj
 0002:00004c38       ??_C@_1M@DNNANBDC@?$AAf?$AAr?$AA?9?$AAB?$AAE?$AA?$AA@ 000000018001fc38     libucrt:lcidtoname_downlevel.obj
 0002:00004c48       ??_C@_1M@HLGMDFHM@?$AAi?$AAt?$AA?9?$AAC?$AAH?$AA?$AA@ 000000018001fc48     libucrt:lcidtoname_downlevel.obj
 0002:00004c58       ??_C@_1M@CLLBGJH@?$AAn?$AAl?$AA?9?$AAB?$AAE?$AA?$AA@ 000000018001fc58     libucrt:lcidtoname_downlevel.obj
 0002:00004c68       ??_C@_1M@BODBOGLF@?$AAn?$AAn?$AA?9?$AAN?$AAO?$AA?$AA@ 000000018001fc68     libucrt:lcidtoname_downlevel.obj
 0002:00004c78       ??_C@_1M@HFFAHKAD@?$AAp?$AAt?$AA?9?$AAP?$AAT?$AA?$AA@ 000000018001fc78     libucrt:lcidtoname_downlevel.obj
 0002:00004c88       ??_C@_1BG@LNOAKHIE@?$AAs?$AAr?$AA?9?$AAS?$AAP?$AA?9?$AAL?$AAa?$AAt?$AAn?$AA?$AA@ 000000018001fc88     libucrt:lcidtoname_downlevel.obj
 0002:00004ca0       ??_C@_1M@HBMHBGAK@?$AAs?$AAv?$AA?9?$AAF?$AAI?$AA?$AA@ 000000018001fca0     libucrt:lcidtoname_downlevel.obj
 0002:00004cb0       ??_C@_1BG@DGCJGJBE@?$AAa?$AAz?$AA?9?$AAA?$AAZ?$AA?9?$AAC?$AAy?$AAr?$AAl?$AA?$AA@ 000000018001fcb0     libucrt:lcidtoname_downlevel.obj
 0002:00004cc8       ??_C@_1M@KEJDAAHB@?$AAs?$AAe?$AA?9?$AAS?$AAE?$AA?$AA@ 000000018001fcc8     libucrt:lcidtoname_downlevel.obj
 0002:00004cd8       ??_C@_1M@HEIBJJAD@?$AAm?$AAs?$AA?9?$AAB?$AAN?$AA?$AA@ 000000018001fcd8     libucrt:lcidtoname_downlevel.obj
 0002:00004ce8       ??_C@_1BG@PBGJMCEM@?$AAu?$AAz?$AA?9?$AAU?$AAZ?$AA?9?$AAC?$AAy?$AAr?$AAl?$AA?$AA@ 000000018001fce8     libucrt:lcidtoname_downlevel.obj
 0002:00004d00       ??_C@_1O@LAOBCMDF@?$AAq?$AAu?$AAz?$AA?9?$AAE?$AAC?$AA?$AA@ 000000018001fd00     libucrt:lcidtoname_downlevel.obj
 0002:00004d10       ??_C@_1M@POEEMAIO@?$AAa?$AAr?$AA?9?$AAE?$AAG?$AA?$AA@ 000000018001fd10     libucrt:lcidtoname_downlevel.obj
 0002:00004d20       ??_C@_1M@EFAKDEDL@?$AAz?$AAh?$AA?9?$AAH?$AAK?$AA?$AA@ 000000018001fd20     libucrt:lcidtoname_downlevel.obj
 0002:00004d30       ??_C@_1M@HKKIJHGI@?$AAd?$AAe?$AA?9?$AAA?$AAT?$AA?$AA@ 000000018001fd30     libucrt:lcidtoname_downlevel.obj
 0002:00004d40       ??_C@_1M@KBFBEHJF@?$AAe?$AAn?$AA?9?$AAA?$AAU?$AA?$AA@ 000000018001fd40     libucrt:lcidtoname_downlevel.obj
 0002:00004d50       ??_C@_1M@MNPLFAAH@?$AAe?$AAs?$AA?9?$AAE?$AAS?$AA?$AA@ 000000018001fd50     libucrt:lcidtoname_downlevel.obj
 0002:00004d60       ??_C@_1M@HJOOJFMA@?$AAf?$AAr?$AA?9?$AAC?$AAA?$AA?$AA@ 000000018001fd60     libucrt:lcidtoname_downlevel.obj
 0002:00004d70       ??_C@_1BG@JPOFPNAB@?$AAs?$AAr?$AA?9?$AAS?$AAP?$AA?9?$AAC?$AAy?$AAr?$AAl?$AA?$AA@ 000000018001fd70     libucrt:lcidtoname_downlevel.obj
 0002:00004d88       ??_C@_1M@LNFOCMOB@?$AAs?$AAe?$AA?9?$AAF?$AAI?$AA?$AA@ 000000018001fd88     libucrt:lcidtoname_downlevel.obj
 0002:00004d98       ??_C@_1O@MGJBOAMB@?$AAq?$AAu?$AAz?$AA?9?$AAP?$AAE?$AA?$AA@ 000000018001fd98     libucrt:lcidtoname_downlevel.obj
 0002:00004da8       ??_C@_1M@GJINLBOK@?$AAa?$AAr?$AA?9?$AAL?$AAY?$AA?$AA@ 000000018001fda8     libucrt:lcidtoname_downlevel.obj
 0002:00004db8       ??_C@_1M@GGMNHJNL@?$AAz?$AAh?$AA?9?$AAS?$AAG?$AA?$AA@ 000000018001fdb8     libucrt:lcidtoname_downlevel.obj
 0002:00004dc8       ??_C@_1M@HOIKODND@?$AAd?$AAe?$AA?9?$AAL?$AAU?$AA?$AA@ 000000018001fdc8     libucrt:lcidtoname_downlevel.obj
 0002:00004dd8       ??_C@_1M@DDOCCGFG@?$AAe?$AAn?$AA?9?$AAC?$AAA?$AA?$AA@ 000000018001fdd8     libucrt:lcidtoname_downlevel.obj
 0002:00004de8       ??_C@_1M@BNOEMJLF@?$AAe?$AAs?$AA?9?$AAG?$AAT?$AA?$AA@ 000000018001fde8     libucrt:lcidtoname_downlevel.obj
 0002:00004df8       ??_C@_1M@EOGNKEK@?$AAf?$AAr?$AA?9?$AAC?$AAH?$AA?$AA@ 000000018001fdf8     libucrt:lcidtoname_downlevel.obj
 0002:00004e08       ??_C@_1M@FLIDJFHL@?$AAh?$AAr?$AA?9?$AAB?$AAA?$AA?$AA@ 000000018001fe08     libucrt:lcidtoname_downlevel.obj
 0002:00004e18       ??_C@_1O@FMCELNAJ@?$AAs?$AAm?$AAj?$AA?9?$AAN?$AAO?$AA?$AA@ 000000018001fe18     libucrt:lcidtoname_downlevel.obj
 0002:00004e28       ??_C@_1M@JHGLJMGJ@?$AAa?$AAr?$AA?9?$AAD?$AAZ?$AA?$AA@ 000000018001fe28     libucrt:lcidtoname_downlevel.obj
 0002:00004e38       ??_C@_1M@JKKFDCNP@?$AAz?$AAh?$AA?9?$AAM?$AAO?$AA?$AA@ 000000018001fe38     libucrt:lcidtoname_downlevel.obj
 0002:00004e48       ??_C@_1M@GEEFALPE@?$AAd?$AAe?$AA?9?$AAL?$AAI?$AA?$AA@ 000000018001fe48     libucrt:lcidtoname_downlevel.obj
 0002:00004e58       ??_C@_1M@IGEOFBG@?$AAe?$AAn?$AA?9?$AAN?$AAZ?$AA?$AA@ 000000018001fe58     libucrt:lcidtoname_downlevel.obj
 0002:00004e68       ??_C@_1M@KDBONEHP@?$AAe?$AAs?$AA?9?$AAC?$AAR?$AA?$AA@ 000000018001fe68     libucrt:lcidtoname_downlevel.obj
 0002:00004e78       ??_C@_1M@FHMDOHNN@?$AAf?$AAr?$AA?9?$AAL?$AAU?$AA?$AA@ 000000018001fe78     libucrt:lcidtoname_downlevel.obj
 0002:00004e88       ??_C@_1BG@NFKKMAFG@?$AAb?$AAs?$AA?9?$AAB?$AAA?$AA?9?$AAL?$AAa?$AAt?$AAn?$AA?$AA@ 000000018001fe88     libucrt:lcidtoname_downlevel.obj
 0002:00004ea0       ??_C@_1O@IMNBEMCI@?$AAs?$AAm?$AAj?$AA?9?$AAS?$AAE?$AA?$AA@ 000000018001fea0     libucrt:lcidtoname_downlevel.obj
 0002:00004eb0       ??_C@_1M@DHHMBNDP@?$AAa?$AAr?$AA?9?$AAM?$AAA?$AA?$AA@ 000000018001feb0     libucrt:lcidtoname_downlevel.obj
 0002:00004ec0       ??_C@_1M@BNBLJCGH@?$AAe?$AAn?$AA?9?$AAI?$AAE?$AA?$AA@ 000000018001fec0     libucrt:lcidtoname_downlevel.obj
 0002:00004ed0       ??_C@_1M@GEPAFMDL@?$AAe?$AAs?$AA?9?$AAP?$AAA?$AA?$AA@ 000000018001fed0     libucrt:lcidtoname_downlevel.obj
 0002:00004ee0       ??_C@_1M@OJONDMDL@?$AAf?$AAr?$AA?9?$AAM?$AAC?$AA?$AA@ 000000018001fee0     libucrt:lcidtoname_downlevel.obj
 0002:00004ef0       ??_C@_1BG@OBCNFJB@?$AAs?$AAr?$AA?9?$AAB?$AAA?$AA?9?$AAL?$AAa?$AAt?$AAn?$AA?$AA@ 000000018001fef0     libucrt:lcidtoname_downlevel.obj
 0002:00004f08       ??_C@_1O@KEMEEGPO@?$AAs?$AAm?$AAa?$AA?9?$AAN?$AAO?$AA?$AA@ 000000018001ff08     libucrt:lcidtoname_downlevel.obj
 0002:00004f18       ??_C@_1M@ELMGFODK@?$AAa?$AAr?$AA?9?$AAT?$AAN?$AA?$AA@ 000000018001ff18     libucrt:lcidtoname_downlevel.obj
 0002:00004f28       ??_C@_1M@BHDLHFAF@?$AAe?$AAn?$AA?9?$AAZ?$AAA?$AA?$AA@ 000000018001ff28     libucrt:lcidtoname_downlevel.obj
 0002:00004f38       ??_C@_1M@BMGIGLIF@?$AAe?$AAs?$AA?9?$AAD?$AAO?$AA?$AA@ 000000018001ff38     libucrt:lcidtoname_downlevel.obj
 0002:00004f48       ??_C@_1BG@CMBHIPBE@?$AAs?$AAr?$AA?9?$AAB?$AAA?$AA?9?$AAC?$AAy?$AAr?$AAl?$AA?$AA@ 000000018001ff48     libucrt:lcidtoname_downlevel.obj
 0002:00004f60       ??_C@_1O@HEDBLHNP@?$AAs?$AAm?$AAa?$AA?9?$AAS?$AAE?$AA?$AA@ 000000018001ff60     libucrt:lcidtoname_downlevel.obj
 0002:00004f70       ??_C@_1M@DAGCADIM@?$AAa?$AAr?$AA?9?$AAO?$AAM?$AA?$AA@ 000000018001ff70     libucrt:lcidtoname_downlevel.obj
 0002:00004f80       ??_C@_1M@FODLMICG@?$AAe?$AAn?$AA?9?$AAJ?$AAM?$AA?$AA@ 000000018001ff80     libucrt:lcidtoname_downlevel.obj
 0002:00004f90       ??_C@_1M@DNMLCIHB@?$AAe?$AAs?$AA?9?$AAV?$AAE?$AA?$AA@ 000000018001ff90     libucrt:lcidtoname_downlevel.obj
 0002:00004fa0       ??_C@_1O@EOKHMKJK@?$AAs?$AAm?$AAs?$AA?9?$AAF?$AAI?$AA?$AA@ 000000018001ffa0     libucrt:lcidtoname_downlevel.obj
 0002:00004fb0       ??_C@_1M@CAFJMKOF@?$AAa?$AAr?$AA?9?$AAY?$AAE?$AA?$AA@ 000000018001ffb0     libucrt:lcidtoname_downlevel.obj
 0002:00004fc0       ??_C@_1M@CBFHIJLI@?$AAe?$AAn?$AA?9?$AAC?$AAB?$AA?$AA@ 000000018001ffc0     libucrt:lcidtoname_downlevel.obj
 0002:00004fd0       ??_C@_1M@BGNFLDN@?$AAe?$AAs?$AA?9?$AAC?$AAO?$AA?$AA@ 000000018001ffd0     libucrt:lcidtoname_downlevel.obj
 0002:00004fe0       ??_C@_1O@JMPHMAMC@?$AAs?$AAm?$AAn?$AA?9?$AAF?$AAI?$AA?$AA@ 000000018001ffe0     libucrt:lcidtoname_downlevel.obj
 0002:00004ff0       ??_C@_1M@JLANABKE@?$AAa?$AAr?$AA?9?$AAS?$AAY?$AA?$AA@ 000000018001fff0     libucrt:lcidtoname_downlevel.obj
 0002:00005000       ??_C@_1M@HPKGCFGN@?$AAe?$AAn?$AA?9?$AAB?$AAZ?$AA?$AA@ 0000000180020000     libucrt:lcidtoname_downlevel.obj
 0002:00005010       ??_C@_1M@OLJCMLGM@?$AAe?$AAs?$AA?9?$AAP?$AAE?$AA?$AA@ 0000000180020010     libucrt:lcidtoname_downlevel.obj
 0002:00005020       ??_C@_1M@MKKGFKLE@?$AAa?$AAr?$AA?9?$AAJ?$AAO?$AA?$AA@ 0000000180020020     libucrt:lcidtoname_downlevel.obj
 0002:00005030       ??_C@_1M@EKPGLDNI@?$AAe?$AAn?$AA?9?$AAT?$AAT?$AA?$AA@ 0000000180020030     libucrt:lcidtoname_downlevel.obj
 0002:00005040       ??_C@_1M@OONGHFHE@?$AAe?$AAs?$AA?9?$AAA?$AAR?$AA?$AA@ 0000000180020040     libucrt:lcidtoname_downlevel.obj
 0002:00005050       ??_C@_1M@OOJFGBHE@?$AAa?$AAr?$AA?9?$AAL?$AAB?$AA?$AA@ 0000000180020050     libucrt:lcidtoname_downlevel.obj
 0002:00005060       ??_C@_1M@GCEJHNEG@?$AAe?$AAn?$AA?9?$AAZ?$AAW?$AA?$AA@ 0000000180020060     libucrt:lcidtoname_downlevel.obj
 0002:00005070       ??_C@_1M@JNOCAHJI@?$AAe?$AAs?$AA?9?$AAE?$AAC?$AA?$AA@ 0000000180020070     libucrt:lcidtoname_downlevel.obj
 0002:00005080       ??_C@_1M@JEFHPGGB@?$AAa?$AAr?$AA?9?$AAK?$AAW?$AA?$AA@ 0000000180020080     libucrt:lcidtoname_downlevel.obj
 0002:00005090       ??_C@_1M@MLKIBJOJ@?$AAe?$AAn?$AA?9?$AAP?$AAH?$AA?$AA@ 0000000180020090     libucrt:lcidtoname_downlevel.obj
 0002:000050a0       ??_C@_1M@BDNIPEND@?$AAe?$AAs?$AA?9?$AAC?$AAL?$AA?$AA@ 00000001800200a0     libucrt:lcidtoname_downlevel.obj
 0002:000050b0       ??_C@_1M@MPNMEKBD@?$AAa?$AAr?$AA?9?$AAA?$AAE?$AA?$AA@ 00000001800200b0     libucrt:lcidtoname_downlevel.obj
 0002:000050c0       ??_C@_1M@KBJALCPI@?$AAe?$AAs?$AA?9?$AAU?$AAY?$AA?$AA@ 00000001800200c0     libucrt:lcidtoname_downlevel.obj
 0002:000050d0       ??_C@_1M@LLCCOAGA@?$AAa?$AAr?$AA?9?$AAB?$AAH?$AA?$AA@ 00000001800200d0     libucrt:lcidtoname_downlevel.obj
 0002:000050e0       ??_C@_1M@PBFNCDEL@?$AAe?$AAs?$AA?9?$AAP?$AAY?$AA?$AA@ 00000001800200e0     libucrt:lcidtoname_downlevel.obj
 0002:000050f0       ??_C@_1M@EDGINPNP@?$AAa?$AAr?$AA?9?$AAQ?$AAA?$AA?$AA@ 00000001800200f0     libucrt:lcidtoname_downlevel.obj
 0002:00005100       ??_C@_1M@MKDBIIJI@?$AAe?$AAs?$AA?9?$AAB?$AAO?$AA?$AA@ 0000000180020100     libucrt:lcidtoname_downlevel.obj
 0002:00005110       ??_C@_1M@CPKKEBLD@?$AAe?$AAs?$AA?9?$AAS?$AAV?$AA?$AA@ 0000000180020110     libucrt:lcidtoname_downlevel.obj
 0002:00005120       ??_C@_1M@NDBGMMJL@?$AAe?$AAs?$AA?9?$AAH?$AAN?$AA?$AA@ 0000000180020120     libucrt:lcidtoname_downlevel.obj
 0002:00005130       ??_C@_1M@JIJIBHDP@?$AAe?$AAs?$AA?9?$AAN?$AAI?$AA?$AA@ 0000000180020130     libucrt:lcidtoname_downlevel.obj
 0002:00005140       ??_C@_1M@CGFMKEEK@?$AAe?$AAs?$AA?9?$AAP?$AAR?$AA?$AA@ 0000000180020140     libucrt:lcidtoname_downlevel.obj
 0002:00005150       ??_C@_1O@ICJHKIIK@?$AAz?$AAh?$AA?9?$AAC?$AAH?$AAT?$AA?$AA@ 0000000180020150     libucrt:lcidtoname_downlevel.obj
 0002:00005160       ??_C@_15CLNEJCE@?$AAs?$AAr?$AA?$AA@ 0000000180020160     libucrt:lcidtoname_downlevel.obj
 0002:00005fb0       ??_C@_1M@KAHEKEIG@?$AAa?$AAf?$AA?9?$AAz?$AAa?$AA?$AA@ 0000000180020fb0     libucrt:lcidtoname_downlevel.obj
 0002:00005fc0       ??_C@_1M@GIECOABL@?$AAa?$AAr?$AA?9?$AAa?$AAe?$AA?$AA@ 0000000180020fc0     libucrt:lcidtoname_downlevel.obj
 0002:00005fd0       ??_C@_1M@BMLMEKGI@?$AAa?$AAr?$AA?9?$AAb?$AAh?$AA?$AA@ 0000000180020fd0     libucrt:lcidtoname_downlevel.obj
 0002:00005fe0       ??_C@_1M@DAPFDGGB@?$AAa?$AAr?$AA?9?$AAd?$AAz?$AA?$AA@ 0000000180020fe0     libucrt:lcidtoname_downlevel.obj
 0002:00005ff0       ??_C@_1M@FJNKGKIG@?$AAa?$AAr?$AA?9?$AAe?$AAg?$AA?$AA@ 0000000180020ff0     libucrt:lcidtoname_downlevel.obj
 0002:00006000       ??_C@_1M@FLGKKCLO@?$AAa?$AAr?$AA?9?$AAi?$AAq?$AA?$AA@ 0000000180021000     libucrt:lcidtoname_downlevel.obj
 0002:00006010       ??_C@_1M@GNDIPALM@?$AAa?$AAr?$AA?9?$AAj?$AAo?$AA?$AA@ 0000000180021010     libucrt:lcidtoname_downlevel.obj
 0002:00006020       ??_C@_1M@DDMJFMGJ@?$AAa?$AAr?$AA?9?$AAk?$AAw?$AA?$AA@ 0000000180021020     libucrt:lcidtoname_downlevel.obj
 0002:00006030       ??_C@_1M@EJALMLHM@?$AAa?$AAr?$AA?9?$AAl?$AAb?$AA?$AA@ 0000000180021030     libucrt:lcidtoname_downlevel.obj
 0002:00006040       ??_C@_1M@MOBDBLOC@?$AAa?$AAr?$AA?9?$AAl?$AAy?$AA?$AA@ 0000000180021040     libucrt:lcidtoname_downlevel.obj
 0002:00006050       ??_C@_1M@JAOCLHDH@?$AAa?$AAr?$AA?9?$AAm?$AAa?$AA?$AA@ 0000000180021050     libucrt:lcidtoname_downlevel.obj
 0002:00006060       ??_C@_1M@JHPMKJIE@?$AAa?$AAr?$AA?9?$AAo?$AAm?$AA?$AA@ 0000000180021060     libucrt:lcidtoname_downlevel.obj
 0002:00006070       ??_C@_1M@OEPGHFNH@?$AAa?$AAr?$AA?9?$AAq?$AAa?$AA?$AA@ 0000000180021070     libucrt:lcidtoname_downlevel.obj
 0002:00006080       ??_C@_1M@KJDONENM@?$AAa?$AAr?$AA?9?$AAs?$AAa?$AA?$AA@ 0000000180021080     libucrt:lcidtoname_downlevel.obj
 0002:00006090       ??_C@_1M@DMJDKLKM@?$AAa?$AAr?$AA?9?$AAs?$AAy?$AA?$AA@ 0000000180021090     libucrt:lcidtoname_downlevel.obj
 0002:000060a0       ??_C@_1M@OMFIPEDC@?$AAa?$AAr?$AA?9?$AAt?$AAn?$AA?$AA@ 00000001800210a0     libucrt:lcidtoname_downlevel.obj
 0002:000060b0       ??_C@_1M@IHMHGAON@?$AAa?$AAr?$AA?9?$AAy?$AAe?$AA?$AA@ 00000001800210b0     libucrt:lcidtoname_downlevel.obj
 0002:000060c0       ??_C@_1BG@KDCPGJGB@?$AAa?$AAz?$AA?9?$AAa?$AAz?$AA?9?$AAc?$AAy?$AAr?$AAl?$AA?$AA@ 00000001800210c0     libucrt:lcidtoname_downlevel.obj
 0002:000060d8       ??_C@_1BG@IBCKDDOE@?$AAa?$AAz?$AA?9?$AAa?$AAz?$AA?9?$AAl?$AAa?$AAt?$AAn?$AA?$AA@ 00000001800210d8     libucrt:lcidtoname_downlevel.obj
 0002:000060f0       ??_C@_1M@EGPFDCPD@?$AAb?$AAe?$AA?9?$AAb?$AAy?$AA?$AA@ 00000001800210f0     libucrt:lcidtoname_downlevel.obj
 0002:00006100       ??_C@_1M@PCMGMCGC@?$AAb?$AAg?$AA?9?$AAb?$AAg?$AA?$AA@ 0000000180021100     libucrt:lcidtoname_downlevel.obj
 0002:00006110       ??_C@_1M@BJBMFGOB@?$AAb?$AAn?$AA?9?$AAi?$AAn?$AA?$AA@ 0000000180021110     libucrt:lcidtoname_downlevel.obj
 0002:00006120       ??_C@_1BG@EAKMMACD@?$AAb?$AAs?$AA?9?$AAb?$AAa?$AA?9?$AAl?$AAa?$AAt?$AAn?$AA?$AA@ 0000000180021120     libucrt:lcidtoname_downlevel.obj
 0002:00006138       ??_C@_1M@KGADAODK@?$AAc?$AAa?$AA?9?$AAe?$AAs?$AA?$AA@ 0000000180021138     libucrt:lcidtoname_downlevel.obj
 0002:00006148       ??_C@_1M@COAJPDHI@?$AAc?$AAs?$AA?9?$AAc?$AAz?$AA?$AA@ 0000000180021148     libucrt:lcidtoname_downlevel.obj
 0002:00006158       ??_C@_1M@DHBHFONH@?$AAc?$AAy?$AA?9?$AAg?$AAb?$AA?$AA@ 0000000180021158     libucrt:lcidtoname_downlevel.obj
 0002:00006168       ??_C@_1M@IMGKELGA@?$AAd?$AAa?$AA?9?$AAd?$AAk?$AA?$AA@ 0000000180021168     libucrt:lcidtoname_downlevel.obj
 0002:00006178       ??_C@_1M@NNDGDNGA@?$AAd?$AAe?$AA?9?$AAa?$AAt?$AA?$AA@ 0000000180021178     libucrt:lcidtoname_downlevel.obj
 0002:00006188       ??_C@_1M@IKDBHEEM@?$AAd?$AAe?$AA?9?$AAc?$AAh?$AA?$AA@ 0000000180021188     libucrt:lcidtoname_downlevel.obj
 0002:00006198       ??_C@_1M@GFFOJMCJ@?$AAd?$AAe?$AA?9?$AAd?$AAe?$AA?$AA@ 0000000180021198     libucrt:lcidtoname_downlevel.obj
 0002:000061a8       ??_C@_1M@MDNLKBPM@?$AAd?$AAe?$AA?9?$AAl?$AAi?$AA?$AA@ 00000001800211a8     libucrt:lcidtoname_downlevel.obj
 0002:000061b8       ??_C@_1M@NJBEEJNL@?$AAd?$AAe?$AA?9?$AAl?$AAu?$AA?$AA@ 00000001800211b8     libucrt:lcidtoname_downlevel.obj
 0002:000061c8       ??_C@_1O@GNNELBAP@?$AAd?$AAi?$AAv?$AA?9?$AAm?$AAv?$AA?$AA@ 00000001800211c8     libucrt:lcidtoname_downlevel.obj
 0002:000061d8       ??_C@_1M@EJLEOGAE@?$AAe?$AAl?$AA?9?$AAg?$AAr?$AA?$AA@ 00000001800211d8     libucrt:lcidtoname_downlevel.obj
 0002:000061e8       ??_C@_1M@GMPONJN@?$AAe?$AAn?$AA?9?$AAa?$AAu?$AA?$AA@ 00000001800211e8     libucrt:lcidtoname_downlevel.obj
 0002:000061f8       ??_C@_1M@NIDIIPGF@?$AAe?$AAn?$AA?9?$AAb?$AAz?$AA?$AA@ 00000001800211f8     libucrt:lcidtoname_downlevel.obj
 0002:00006208       ??_C@_1M@JEHMIMFO@?$AAe?$AAn?$AA?9?$AAc?$AAa?$AA?$AA@ 0000000180021208     libucrt:lcidtoname_downlevel.obj
 0002:00006218       ??_C@_1M@IGMJCDLA@?$AAe?$AAn?$AA?9?$AAc?$AAb?$AA?$AA@ 0000000180021218     libucrt:lcidtoname_downlevel.obj
 0002:00006228       ??_C@_1M@BNFIGBKG@?$AAe?$AAn?$AA?9?$AAg?$AAb?$AA?$AA@ 0000000180021228     libucrt:lcidtoname_downlevel.obj
 0002:00006238       ??_C@_1M@LKIFDIGP@?$AAe?$AAn?$AA?9?$AAi?$AAe?$AA?$AA@ 0000000180021238     libucrt:lcidtoname_downlevel.obj
 0002:00006248       ??_C@_1M@PJKFGCCO@?$AAe?$AAn?$AA?9?$AAj?$AAm?$AA?$AA@ 0000000180021248     libucrt:lcidtoname_downlevel.obj
 0002:00006258       ??_C@_1M@KPPKEPBO@?$AAe?$AAn?$AA?9?$AAn?$AAz?$AA?$AA@ 0000000180021258     libucrt:lcidtoname_downlevel.obj
 0002:00006268       ??_C@_1M@GMDGLDOB@?$AAe?$AAn?$AA?9?$AAp?$AAh?$AA?$AA@ 0000000180021268     libucrt:lcidtoname_downlevel.obj
 0002:00006278       ??_C@_1M@ONGIBJNA@?$AAe?$AAn?$AA?9?$AAt?$AAt?$AA?$AA@ 0000000180021278     libucrt:lcidtoname_downlevel.obj
 0002:00006288       ??_C@_1M@LLODPCMM@?$AAe?$AAn?$AA?9?$AAu?$AAs?$AA?$AA@ 0000000180021288     libucrt:lcidtoname_downlevel.obj
 0002:00006298       ??_C@_1M@LAKFNPAN@?$AAe?$AAn?$AA?9?$AAz?$AAa?$AA?$AA@ 0000000180021298     libucrt:lcidtoname_downlevel.obj
 0002:000062a8       ??_C@_1M@MFNHNHEO@?$AAe?$AAn?$AA?9?$AAz?$AAw?$AA?$AA@ 00000001800212a8     libucrt:lcidtoname_downlevel.obj
 0002:000062b8       ??_C@_1M@EJEINPHM@?$AAe?$AAs?$AA?9?$AAa?$AAr?$AA?$AA@ 00000001800212b8     libucrt:lcidtoname_downlevel.obj
 0002:000062c8       ??_C@_1M@GNKPCCJA@?$AAe?$AAs?$AA?9?$AAb?$AAo?$AA?$AA@ 00000001800212c8     libucrt:lcidtoname_downlevel.obj
 0002:000062d8       ??_C@_1M@LEEGFONL@?$AAe?$AAs?$AA?9?$AAc?$AAl?$AA?$AA@ 00000001800212d8     libucrt:lcidtoname_downlevel.obj
 0002:000062e8       ??_C@_1M@KGPDPBDF@?$AAe?$AAs?$AA?9?$AAc?$AAo?$AA?$AA@ 00000001800212e8     libucrt:lcidtoname_downlevel.obj
 0002:000062f8       ??_C@_1M@EIAHOHH@?$AAe?$AAs?$AA?9?$AAc?$AAr?$AA?$AA@ 00000001800212f8     libucrt:lcidtoname_downlevel.obj
 0002:00006308       ??_C@_1M@LLPGMBIN@?$AAe?$AAs?$AA?9?$AAd?$AAo?$AA?$AA@ 0000000180021308     libucrt:lcidtoname_downlevel.obj
 0002:00006318       ??_C@_1M@DKHMKNJA@?$AAe?$AAs?$AA?9?$AAe?$AAc?$AA?$AA@ 0000000180021318     libucrt:lcidtoname_downlevel.obj
 0002:00006328       ??_C@_1M@GKGFPKAP@?$AAe?$AAs?$AA?9?$AAe?$AAs?$AA?$AA@ 0000000180021328     libucrt:lcidtoname_downlevel.obj
 0002:00006338       ??_C@_1M@LKHKGDLN@?$AAe?$AAs?$AA?9?$AAg?$AAt?$AA?$AA@ 0000000180021338     libucrt:lcidtoname_downlevel.obj
 0002:00006348       ??_C@_1M@HEIIGGJD@?$AAe?$AAs?$AA?9?$AAh?$AAn?$AA?$AA@ 0000000180021348     libucrt:lcidtoname_downlevel.obj
 0002:00006358       ??_C@_1M@FBDHPPGD@?$AAe?$AAs?$AA?9?$AAm?$AAx?$AA?$AA@ 0000000180021358     libucrt:lcidtoname_downlevel.obj
 0002:00006368       ??_C@_1M@DPAGLNDH@?$AAe?$AAs?$AA?9?$AAn?$AAi?$AA?$AA@ 0000000180021368     libucrt:lcidtoname_downlevel.obj
 0002:00006378       ??_C@_1M@MDGOPGDD@?$AAe?$AAs?$AA?9?$AAp?$AAa?$AA?$AA@ 0000000180021378     libucrt:lcidtoname_downlevel.obj
 0002:00006388       ??_C@_1M@EMAMGBGE@?$AAe?$AAs?$AA?9?$AAp?$AAe?$AA?$AA@ 0000000180021388     libucrt:lcidtoname_downlevel.obj
 0002:00006398       ??_C@_1M@IBMCAOEC@?$AAe?$AAs?$AA?9?$AAp?$AAr?$AA?$AA@ 0000000180021398     libucrt:lcidtoname_downlevel.obj
 0002:000063a8       ??_C@_1M@FGMDIJED@?$AAe?$AAs?$AA?9?$AAp?$AAy?$AA?$AA@ 00000001800213a8     libucrt:lcidtoname_downlevel.obj
 0002:000063b8       ??_C@_1M@IIDEOLLL@?$AAe?$AAs?$AA?9?$AAs?$AAv?$AA?$AA@ 00000001800213b8     libucrt:lcidtoname_downlevel.obj
 0002:000063c8       ??_C@_1M@GAOBIPA@?$AAe?$AAs?$AA?9?$AAu?$AAy?$AA?$AA@ 00000001800213c8     libucrt:lcidtoname_downlevel.obj
 0002:000063d8       ??_C@_1M@JKFFICHJ@?$AAe?$AAs?$AA?9?$AAv?$AAe?$AA?$AA@ 00000001800213d8     libucrt:lcidtoname_downlevel.obj
 0002:000063e8       ??_C@_1M@PNMLOJDF@?$AAe?$AAt?$AA?9?$AAe?$AAe?$AA?$AA@ 00000001800213e8     libucrt:lcidtoname_downlevel.obj
 0002:000063f8       ??_C@_1M@GHHLIKEI@?$AAe?$AAu?$AA?9?$AAe?$AAs?$AA?$AA@ 00000001800213f8     libucrt:lcidtoname_downlevel.obj
 0002:00006408       ??_C@_1M@PBNONODE@?$AAf?$AAa?$AA?9?$AAi?$AAr?$AA?$AA@ 0000000180021408     libucrt:lcidtoname_downlevel.obj
 0002:00006418       ??_C@_1M@JEEHPMIL@?$AAf?$AAi?$AA?9?$AAf?$AAi?$AA?$AA@ 0000000180021418     libucrt:lcidtoname_downlevel.obj
 0002:00006428       ??_C@_1M@LMDCNDBA@?$AAf?$AAo?$AA?9?$AAf?$AAo?$AA?$AA@ 0000000180021428     libucrt:lcidtoname_downlevel.obj
 0002:00006438       ??_C@_1M@JKEOHLDK@?$AAf?$AAr?$AA?9?$AAb?$AAe?$AA?$AA@ 0000000180021438     libucrt:lcidtoname_downlevel.obj
 0002:00006448       ??_C@_1M@NOHADPMI@?$AAf?$AAr?$AA?9?$AAc?$AAa?$AA?$AA@ 0000000180021448     libucrt:lcidtoname_downlevel.obj
 0002:00006458       ??_C@_1M@KDHIHAEC@?$AAf?$AAr?$AA?9?$AAc?$AAh?$AA?$AA@ 0000000180021458     libucrt:lcidtoname_downlevel.obj
 0002:00006468       ??_C@_1M@MMBBFGAK@?$AAf?$AAr?$AA?9?$AAf?$AAr?$AA?$AA@ 0000000180021468     libucrt:lcidtoname_downlevel.obj
 0002:00006478       ??_C@_1M@PAFNENNF@?$AAf?$AAr?$AA?9?$AAl?$AAu?$AA?$AA@ 0000000180021478     libucrt:lcidtoname_downlevel.obj
 0002:00006488       ??_C@_1M@EOHDJGDD@?$AAf?$AAr?$AA?9?$AAm?$AAc?$AA?$AA@ 0000000180021488     libucrt:lcidtoname_downlevel.obj
 0002:00006498       ??_C@_1M@FAPLLOPF@?$AAg?$AAl?$AA?9?$AAe?$AAs?$AA?$AA@ 0000000180021498     libucrt:lcidtoname_downlevel.obj
 0002:000064a8       ??_C@_1M@FOPBFLOO@?$AAg?$AAu?$AA?9?$AAi?$AAn?$AA?$AA@ 00000001800214a8     libucrt:lcidtoname_downlevel.obj
 0002:000064b8       ??_C@_1M@KBMCINPM@?$AAh?$AAe?$AA?9?$AAi?$AAl?$AA?$AA@ 00000001800214b8     libucrt:lcidtoname_downlevel.obj
 0002:000064c8       ??_C@_1M@BBPHKFPJ@?$AAh?$AAi?$AA?9?$AAi?$AAn?$AA?$AA@ 00000001800214c8     libucrt:lcidtoname_downlevel.obj
 0002:000064d8       ??_C@_1M@PMBNDPHD@?$AAh?$AAr?$AA?9?$AAb?$AAa?$AA?$AA@ 00000001800214d8     libucrt:lcidtoname_downlevel.obj
 0002:000064e8       ??_C@_1M@BPCKOEGE@?$AAh?$AAr?$AA?9?$AAh?$AAr?$AA?$AA@ 00000001800214e8     libucrt:lcidtoname_downlevel.obj
 0002:000064f8       ??_C@_1M@GACBMHKE@?$AAh?$AAu?$AA?9?$AAh?$AAu?$AA?$AA@ 00000001800214f8     libucrt:lcidtoname_downlevel.obj
 0002:00006508       ??_C@_1M@MILPAJJC@?$AAh?$AAy?$AA?9?$AAa?$AAm?$AA?$AA@ 0000000180021508     libucrt:lcidtoname_downlevel.obj
 0002:00006518       ??_C@_1M@BABBICEC@?$AAi?$AAd?$AA?9?$AAi?$AAd?$AA?$AA@ 0000000180021518     libucrt:lcidtoname_downlevel.obj
 0002:00006528       ??_C@_1M@BIKNHHPF@?$AAi?$AAs?$AA?9?$AAi?$AAs?$AA?$AA@ 0000000180021528     libucrt:lcidtoname_downlevel.obj
 0002:00006538       ??_C@_1M@NMPCJPHE@?$AAi?$AAt?$AA?9?$AAc?$AAh?$AA?$AA@ 0000000180021538     libucrt:lcidtoname_downlevel.obj
 0002:00006548       ??_C@_1M@GHKGFEDF@?$AAi?$AAt?$AA?9?$AAi?$AAt?$AA?$AA@ 0000000180021548     libucrt:lcidtoname_downlevel.obj
 0002:00006558       ??_C@_1M@NIEJCJJA@?$AAj?$AAa?$AA?9?$AAj?$AAp?$AA?$AA@ 0000000180021558     libucrt:lcidtoname_downlevel.obj
 0002:00006568       ??_C@_1M@JILFNBIM@?$AAk?$AAa?$AA?9?$AAg?$AAe?$AA?$AA@ 0000000180021568     libucrt:lcidtoname_downlevel.obj
 0002:00006578       ??_C@_1M@PACPMGPH@?$AAk?$AAk?$AA?9?$AAk?$AAz?$AA?$AA@ 0000000180021578     libucrt:lcidtoname_downlevel.obj
 0002:00006588       ??_C@_1M@IELFGMHA@?$AAk?$AAn?$AA?9?$AAi?$AAn?$AA?$AA@ 0000000180021588     libucrt:lcidtoname_downlevel.obj
 0002:00006598       ??_C@_1O@IBBJHCH@?$AAk?$AAo?$AAk?$AA?9?$AAi?$AAn?$AA?$AA@ 0000000180021598     libucrt:lcidtoname_downlevel.obj
 0002:000065a8       ??_C@_1M@DMHAEOGC@?$AAk?$AAo?$AA?9?$AAk?$AAr?$AA?$AA@ 00000001800215a8     libucrt:lcidtoname_downlevel.obj
 0002:000065b8       ??_C@_1M@HBAHBIGA@?$AAk?$AAy?$AA?9?$AAk?$AAg?$AA?$AA@ 00000001800215b8     libucrt:lcidtoname_downlevel.obj
 0002:000065c8       ??_C@_1M@KPMILCJG@?$AAl?$AAt?$AA?9?$AAl?$AAt?$AA?$AA@ 00000001800215c8     libucrt:lcidtoname_downlevel.obj
 0002:000065d8       ??_C@_1M@BDEKKCA@?$AAl?$AAv?$AA?9?$AAl?$AAv?$AA?$AA@ 00000001800215d8     libucrt:lcidtoname_downlevel.obj
 0002:000065e8       ??_C@_1M@ELCKCCJJ@?$AAm?$AAi?$AA?9?$AAn?$AAz?$AA?$AA@ 00000001800215e8     libucrt:lcidtoname_downlevel.obj
 0002:000065f8       ??_C@_1M@CBOOLAPA@?$AAm?$AAk?$AA?9?$AAm?$AAk?$AA?$AA@ 00000001800215f8     libucrt:lcidtoname_downlevel.obj
 0002:00006608       ??_C@_1M@GPHNBJKN@?$AAm?$AAl?$AA?9?$AAi?$AAn?$AA?$AA@ 0000000180021608     libucrt:lcidtoname_downlevel.obj
 0002:00006618       ??_C@_1M@PABJILIG@?$AAm?$AAn?$AA?9?$AAm?$AAn?$AA?$AA@ 0000000180021618     libucrt:lcidtoname_downlevel.obj
 0002:00006628       ??_C@_1M@FGBKKIPG@?$AAm?$AAr?$AA?9?$AAi?$AAn?$AA?$AA@ 0000000180021628     libucrt:lcidtoname_downlevel.obj
 0002:00006638       ??_C@_1M@NDBPDDAL@?$AAm?$AAs?$AA?9?$AAb?$AAn?$AA?$AA@ 0000000180021638     libucrt:lcidtoname_downlevel.obj
 0002:00006648       ??_C@_1M@OPIHOOPI@?$AAm?$AAs?$AA?9?$AAm?$AAy?$AA?$AA@ 0000000180021648     libucrt:lcidtoname_downlevel.obj
 0002:00006658       ??_C@_1M@PPDBCNFM@?$AAm?$AAt?$AA?9?$AAm?$AAt?$AA?$AA@ 0000000180021658     libucrt:lcidtoname_downlevel.obj
 0002:00006668       ??_C@_1M@KDJDKMDD@?$AAn?$AAb?$AA?9?$AAn?$AAo?$AA?$AA@ 0000000180021668     libucrt:lcidtoname_downlevel.obj
 0002:00006678       ??_C@_1M@KFCFLMJP@?$AAn?$AAl?$AA?9?$AAb?$AAe?$AA?$AA@ 0000000180021678     libucrt:lcidtoname_downlevel.obj
 0002:00006688       ??_C@_1M@KPOPDDGO@?$AAn?$AAl?$AA?9?$AAn?$AAl?$AA?$AA@ 0000000180021688     libucrt:lcidtoname_downlevel.obj
 0002:00006698       ??_C@_1M@LJKPEMLN@?$AAn?$AAn?$AA?9?$AAn?$AAo?$AA?$AA@ 0000000180021698     libucrt:lcidtoname_downlevel.obj
 0002:000066a8       ??_C@_1M@BDGHHBFL@?$AAn?$AAs?$AA?9?$AAz?$AAa?$AA?$AA@ 00000001800216a8     libucrt:lcidtoname_downlevel.obj
 0002:000066b8       ??_C@_1M@IDEHOAP@?$AAp?$AAa?$AA?9?$AAi?$AAn?$AA?$AA@ 00000001800216b8     libucrt:lcidtoname_downlevel.obj
 0002:000066c8       ??_C@_1M@HDBKGOGH@?$AAp?$AAl?$AA?9?$AAp?$AAl?$AA?$AA@ 00000001800216c8     libucrt:lcidtoname_downlevel.obj
 0002:000066d8       ??_C@_1M@LJLLCMEH@?$AAp?$AAt?$AA?9?$AAb?$AAr?$AA?$AA@ 00000001800216d8     libucrt:lcidtoname_downlevel.obj
 0002:000066e8       ??_C@_1M@NCMONAAL@?$AAp?$AAt?$AA?9?$AAp?$AAt?$AA?$AA@ 00000001800216e8     libucrt:lcidtoname_downlevel.obj
 0002:000066f8       ??_C@_1O@EAKMAJDN@?$AAq?$AAu?$AAz?$AA?9?$AAb?$AAo?$AA?$AA@ 00000001800216f8     libucrt:lcidtoname_downlevel.obj
 0002:00006708       ??_C@_1O@BHHPIGDN@?$AAq?$AAu?$AAz?$AA?9?$AAe?$AAc?$AA?$AA@ 0000000180021708     libucrt:lcidtoname_downlevel.obj
 0002:00006718       ??_C@_1O@GBAPEKMJ@?$AAq?$AAu?$AAz?$AA?9?$AAp?$AAe?$AA?$AA@ 0000000180021718     libucrt:lcidtoname_downlevel.obj
 0002:00006728       ??_C@_1M@CLGLEFBO@?$AAr?$AAo?$AA?9?$AAr?$AAo?$AA?$AA@ 0000000180021728     libucrt:lcidtoname_downlevel.obj
 0002:00006738       ??_C@_1M@CEEDODME@?$AAr?$AAu?$AA?9?$AAr?$AAu?$AA?$AA@ 0000000180021738     libucrt:lcidtoname_downlevel.obj
 0002:00006748       ??_C@_1M@HPKKKMPP@?$AAs?$AAa?$AA?9?$AAi?$AAn?$AA?$AA@ 0000000180021748     libucrt:lcidtoname_downlevel.obj
 0002:00006758       ??_C@_1M@BKMAIGOJ@?$AAs?$AAe?$AA?9?$AAf?$AAi?$AA?$AA@ 0000000180021758     libucrt:lcidtoname_downlevel.obj
 0002:00006768       ??_C@_1M@NDPIFLFI@?$AAs?$AAe?$AA?9?$AAn?$AAo?$AA?$AA@ 0000000180021768     libucrt:lcidtoname_downlevel.obj
 0002:00006778       ??_C@_1M@DANKKHJ@?$AAs?$AAe?$AA?9?$AAs?$AAe?$AA?$AA@ 0000000180021778     libucrt:lcidtoname_downlevel.obj
 0002:00006788       ??_C@_1M@PNBLONPJ@?$AAs?$AAk?$AA?9?$AAs?$AAk?$AA?$AA@ 0000000180021788     libucrt:lcidtoname_downlevel.obj
 0002:00006798       ??_C@_1M@LFMODOAL@?$AAs?$AAl?$AA?9?$AAs?$AAi?$AA?$AA@ 0000000180021798     libucrt:lcidtoname_downlevel.obj
 0002:000067a8       ??_C@_1O@DFKOMPG@?$AAs?$AAm?$AAa?$AA?9?$AAn?$AAo?$AA?$AA@ 00000001800217a8     libucrt:lcidtoname_downlevel.obj
 0002:000067b8       ??_C@_1O@NDKPBNNH@?$AAs?$AAm?$AAa?$AA?9?$AAs?$AAe?$AA?$AA@ 00000001800217b8     libucrt:lcidtoname_downlevel.obj
 0002:000067c8       ??_C@_1O@PLLKBHAB@?$AAs?$AAm?$AAj?$AA?9?$AAn?$AAo?$AA?$AA@ 00000001800217c8     libucrt:lcidtoname_downlevel.obj
 0002:000067d8       ??_C@_1O@CLEPOGCA@?$AAs?$AAm?$AAj?$AA?9?$AAs?$AAe?$AA?$AA@ 00000001800217d8     libucrt:lcidtoname_downlevel.obj
 0002:000067e8       ??_C@_1O@DLGJGKMK@?$AAs?$AAm?$AAn?$AA?9?$AAf?$AAi?$AA?$AA@ 00000001800217e8     libucrt:lcidtoname_downlevel.obj
 0002:000067f8       ??_C@_1O@OJDJGAJC@?$AAs?$AAm?$AAs?$AA?9?$AAf?$AAi?$AA?$AA@ 00000001800217f8     libucrt:lcidtoname_downlevel.obj
 0002:00006808       ??_C@_1M@BOFOGHPB@?$AAs?$AAq?$AA?9?$AAa?$AAl?$AA?$AA@ 0000000180021808     libucrt:lcidtoname_downlevel.obj
 0002:00006818       ??_C@_1BG@LJBBIPGB@?$AAs?$AAr?$AA?9?$AAb?$AAa?$AA?9?$AAc?$AAy?$AAr?$AAl?$AA?$AA@ 0000000180021818     libucrt:lcidtoname_downlevel.obj
 0002:00006830       ??_C@_1BG@JLBENFOE@?$AAs?$AAr?$AA?9?$AAb?$AAa?$AA?9?$AAl?$AAa?$AAt?$AAn?$AA?$AA@ 0000000180021830     libucrt:lcidtoname_downlevel.obj
 0002:00006848       ??_C@_1BG@KODPNHE@?$AAs?$AAr?$AA?9?$AAs?$AAp?$AA?9?$AAc?$AAy?$AAr?$AAl?$AA?$AA@ 0000000180021848     libucrt:lcidtoname_downlevel.obj
 0002:00006860       ??_C@_1BG@CIOGKHPB@?$AAs?$AAr?$AA?9?$AAs?$AAp?$AA?9?$AAl?$AAa?$AAt?$AAn?$AA?$AA@ 0000000180021860     libucrt:lcidtoname_downlevel.obj
 0002:00006878       ??_C@_1M@NGFJLMAC@?$AAs?$AAv?$AA?9?$AAf?$AAi?$AA?$AA@ 0000000180021878     libucrt:lcidtoname_downlevel.obj
 0002:00006888       ??_C@_1M@MPJEJAJC@?$AAs?$AAv?$AA?9?$AAs?$AAe?$AA?$AA@ 0000000180021888     libucrt:lcidtoname_downlevel.obj
 0002:00006898       ??_C@_1M@MPNDHLFK@?$AAs?$AAw?$AA?9?$AAk?$AAe?$AA?$AA@ 0000000180021898     libucrt:lcidtoname_downlevel.obj
 0002:000068a8       ??_C@_1O@KOHBJJI@?$AAs?$AAy?$AAr?$AA?9?$AAs?$AAy?$AA?$AA@ 00000001800218a8     libucrt:lcidtoname_downlevel.obj
 0002:000068b8       ??_C@_1M@LDCEFHA@?$AAt?$AAa?$AA?9?$AAi?$AAn?$AA?$AA@ 00000001800218b8     libucrt:lcidtoname_downlevel.obj
 0002:000068c8       ??_C@_1M@CNJOFAK@?$AAt?$AAe?$AA?9?$AAi?$AAn?$AA?$AA@ 00000001800218c8     libucrt:lcidtoname_downlevel.obj
 0002:000068d8       ??_C@_1M@GNAECACD@?$AAt?$AAh?$AA?9?$AAt?$AAh?$AA?$AA@ 00000001800218d8     libucrt:lcidtoname_downlevel.obj
 0002:000068e8       ??_C@_1M@CHBIHOJO@?$AAt?$AAn?$AA?9?$AAz?$AAa?$AA?$AA@ 00000001800218e8     libucrt:lcidtoname_downlevel.obj
 0002:000068f8       ??_C@_1M@GCCMIGPJ@?$AAt?$AAr?$AA?9?$AAt?$AAr?$AA?$AA@ 00000001800218f8     libucrt:lcidtoname_downlevel.obj
 0002:00006908       ??_C@_1M@CELMCNBK@?$AAt?$AAt?$AA?9?$AAr?$AAu?$AA?$AA@ 0000000180021908     libucrt:lcidtoname_downlevel.obj
 0002:00006918       ??_C@_1M@KLMCELGA@?$AAu?$AAk?$AA?9?$AAu?$AAa?$AA?$AA@ 0000000180021918     libucrt:lcidtoname_downlevel.obj
 0002:00006928       ??_C@_1M@EPAJJAJF@?$AAu?$AAr?$AA?9?$AAp?$AAk?$AA?$AA@ 0000000180021928     libucrt:lcidtoname_downlevel.obj
 0002:00006938       ??_C@_1BG@GEGPMCDJ@?$AAu?$AAz?$AA?9?$AAu?$AAz?$AA?9?$AAc?$AAy?$AAr?$AAl?$AA?$AA@ 0000000180021938     libucrt:lcidtoname_downlevel.obj
 0002:00006950       ??_C@_1BG@EGGKJILM@?$AAu?$AAz?$AA?9?$AAu?$AAz?$AA?9?$AAl?$AAa?$AAt?$AAn?$AA?$AA@ 0000000180021950     libucrt:lcidtoname_downlevel.obj
 0002:00006968       ??_C@_1M@GFOCLFF@?$AAv?$AAi?$AA?9?$AAv?$AAn?$AA?$AA@ 0000000180021968     libucrt:lcidtoname_downlevel.obj
 0002:00006978       ??_C@_1M@CPAMEDFI@?$AAx?$AAh?$AA?9?$AAz?$AAa?$AA?$AA@ 0000000180021978     libucrt:lcidtoname_downlevel.obj
 0002:00006988       ??_C@_1O@EBKIFIGN@?$AAz?$AAh?$AA?9?$AAc?$AAh?$AAs?$AA?$AA@ 0000000180021988     libucrt:lcidtoname_downlevel.obj
 0002:00006998       ??_C@_1O@NMHPGANE@?$AAz?$AAh?$AA?9?$AAc?$AAh?$AAt?$AA?$AA@ 0000000180021998     libucrt:lcidtoname_downlevel.obj
 0002:000069a8       ??_C@_1M@LPINJOMC@?$AAz?$AAh?$AA?9?$AAc?$AAn?$AA?$AA@ 00000001800219a8     libucrt:lcidtoname_downlevel.obj
 0002:000069b8       ??_C@_1M@OCJEJODD@?$AAz?$AAh?$AA?9?$AAh?$AAk?$AA?$AA@ 00000001800219b8     libucrt:lcidtoname_downlevel.obj
 0002:000069c8       ??_C@_1M@DNDLJINH@?$AAz?$AAh?$AA?9?$AAm?$AAo?$AA?$AA@ 00000001800219c8     libucrt:lcidtoname_downlevel.obj
 0002:000069d8       ??_C@_1M@MBFDNDND@?$AAz?$AAh?$AA?9?$AAs?$AAg?$AA?$AA@ 00000001800219d8     libucrt:lcidtoname_downlevel.obj
 0002:000069e8       ??_C@_1M@IMEPLEPE@?$AAz?$AAh?$AA?9?$AAt?$AAw?$AA?$AA@ 00000001800219e8     libucrt:lcidtoname_downlevel.obj
 0002:000069f8       ??_C@_1M@BBGHNHJP@?$AAz?$AAu?$AA?9?$AAz?$AAa?$AA?$AA@ 00000001800219f8     libucrt:lcidtoname_downlevel.obj
 0002:00006c60       __log10_256_lead           0000000180021c60     libucrt:log10_256_lead_tail_table.obj
 0002:00007470       __log10_256_tail           0000000180022470     libucrt:log10_256_lead_tail_table.obj
 0002:00007c80       __log_F_inv_qword          0000000180022c80     libucrt:log_f_inv_qword_table.obj
 0002:00008490       ??_C@_05HGHHAHAP@log10?$AA@ 0000000180023490     libucrt:log_special.obj
 0002:00008498       ??_C@_1BA@BALFACEM@?$AAC?$AAO?$AAN?$AAO?$AAU?$AAT?$AA$?$AA?$AA@ 0000000180023498     libucrt:initcon.obj
 0002:000084c0       ??_C@_1BK@DBDEIDLH@?$AAK?$AAE?$AAR?$AAN?$AAE?$AAL?$AA3?$AA2?$AA?4?$AAD?$AAL?$AAL@ 00000001800234c0     DelayImp:delayhlp.obj
 0002:000084e0       ??_C@_0BI@OMNLIJDB@AcquireSRWLockExclusive@ 00000001800234e0     DelayImp:delayhlp.obj
 0002:000084f8       ??_C@_0BI@HMIEPCNJ@ReleaseSRWLockExclusive@ 00000001800234f8     DelayImp:delayhlp.obj
 0002:00008510       __pfnDliFailureHook2       0000000180023510     DelayImp:delayhk1.obj
 0002:00008520       _load_config_used          0000000180023520     LIBCMT:loadcfg.obj
 0002:00008620       ??_C@_0BC@BDKFLDHL@unknown?5exception@ 0000000180023620     binding.obj
 0002:00008638       ??_C@_07CIFAGBMG@unknown@  0000000180023638     binding.obj
 0002:00008640       ??_C@_0BJ@GLEIFKFN@napi_get_last_error_info@ 0000000180023640     binding.obj
 0002:00008660       ??_C@_0L@HGGLHLEF@Error?3?3New@ 0000000180023660     binding.obj
 0002:00008670       ??_C@_0CC@POCGFFOK@napi_get_and_clear_last_excepti@ 0000000180023670     binding.obj
 0002:00008698       ??_C@_0BJ@JAPLLJGC@Error?5in?5native?5callback@ 0000000180023698     binding.obj
 0002:000086b8       ??_C@_0BK@JOKHAPGN@napi_is_exception_pending@ 00000001800236b8     binding.obj
 0002:000086d8       ??_C@_0BI@LICPADOD@napi_create_string_utf8@ 00000001800236d8     binding.obj
 0002:000086f0       ??_C@_0BC@MIFMGDHH@napi_create_error@ 00000001800236f0     binding.obj
 0002:00008708       ??_C@_0BG@LGKKPCKG@napi_create_reference@ 0000000180023708     binding.obj
 0002:00008720       ??_C@_0N@JLICLJJF@Error?3?3Error@ 0000000180023720     binding.obj
 0002:00008730       ??_C@_07ONPBMBOP@message@  0000000180023730     binding.obj
 0002:00008738       ??_C@_0BJ@EOHOJBHE@Buffer?5instance?5expected@ 0000000180023738     binding.obj
 0002:00008754       ??_C@_02BBAHNLBA@?$CFp@    0000000180023754     binding.obj
 0002:00008758       ??_C@_0CN@BHFNGGBN@readObject?3?5Cannot?5read?5from?5nu@ 0000000180023758     binding.obj
 0002:00008788       ??_C@_0CM@MEBAAFPG@readObject?3?5Cannot?5write?5to?5nul@ 0000000180023788     binding.obj
 0002:000087b8       ??_C@_0DB@DCAHMLLF@WriteObject?8s?53rd?5argument?5need@ 00000001800237b8     binding.obj
 0002:000087f0       ??_C@_0CO@DNGNFCFE@readPointer?3?5Cannot?5read?5from?5n@ 00000001800237f0     binding.obj
 0002:00008820       ??_C@_0DJ@LABDIJFL@writePointer?3?5Buffer?5instance?5e@ 0000000180023820     binding.obj
 0002:00008860       ??_C@_0CM@NJENGNAH@readInt64?3?5Cannot?5read?5from?5nul@ 0000000180023860     binding.obj
 0002:0000888c       ??_C@_04BFAHMMK@?$CFlld@   000000018002388c     binding.obj
 0002:00008898       ??_C@_0CP@NCIILIC@writeInt64?3?5no?5digits?5we?5found?5@ 0000000180023898     binding.obj
 0002:000088c8       ??_C@_0DG@JDPEOKAB@writeInt64?3?5input?5String?5numeri@ 00000001800238c8     binding.obj
 0002:00008900       ??_C@_0P@MKKCJDMD@writeInt64?3?5?$CFs@ 0000000180023900     binding.obj
 0002:00008910       ??_C@_0DA@JEKNBHFK@writeInt64?3?5Number?1String?564?9bi@ 0000000180023910     binding.obj
 0002:00008940       ??_C@_0CN@DMGNBPPA@readUInt64?3?5Cannot?5read?5from?5nu@ 0000000180023940     binding.obj
 0002:00008970       ??_C@_0DA@JLLLOEBO@writeUInt64?3?5no?5digits?5we?5found@ 0000000180023970     binding.obj
 0002:000089a0       ??_C@_0DH@EMLDKIHO@writeUInt64?3?5input?5String?5numer@ 00000001800239a0     binding.obj
 0002:000089d8       ??_C@_0BA@IFKEAFDM@writeUInt64?3?5?$CFs@ 00000001800239d8     binding.obj
 0002:000089e8       ??_C@_0DB@GNICFLFK@writeUInt64?3?5Number?1String?564?9b@ 00000001800239e8     binding.obj
 0002:00008a20       ??_C@_0CO@OGJDNMJI@readCString?3?5Cannot?5read?5from?5n@ 0000000180023a20     binding.obj
 0002:00008a50       ??_C@_0DF@PFDADIDG@reinterpret?3?5Cannot?5reinterpret@ 0000000180023a50     binding.obj
 0002:00008a88       ??_C@_0DP@KBLNMCOO@reinterpretUntilZeros?3?5Cannot?5r@ 0000000180023a88     binding.obj
 0002:00008ac8       ??_C@_04DCGBOBJJ@int8@     0000000180023ac8     binding.obj
 0002:00008ad0       ??_C@_05BOGOCLFF@uint8@    0000000180023ad0     binding.obj
 0002:00008ad8       ??_C@_05PCMOAPL@int16@     0000000180023ad8     binding.obj
 0002:00008ae0       ??_C@_06JNNCGBKK@uint16@   0000000180023ae0     binding.obj
 0002:00008ae8       ??_C@_05GIMEPBJB@int32@    0000000180023ae8     binding.obj
 0002:00008af0       ??_C@_06PKDKHAMA@uint32@   0000000180023af0     binding.obj
 0002:00008af8       ??_C@_05DIFFJEPM@int64@    0000000180023af8     binding.obj
 0002:00008b00       ??_C@_06KKKLBFKN@uint64@   0000000180023b00     binding.obj
 0002:00008b08       ??_C@_05KNFBNCOH@float@    0000000180023b08     binding.obj
 0002:00008b10       ??_C@_06BNJCAIGJ@double@   0000000180023b10     binding.obj
 0002:00008b18       ??_C@_04DDKJGDCM@bool@     0000000180023b18     binding.obj
 0002:00008b20       ??_C@_04IHGKJMLH@byte@     0000000180023b20     binding.obj
 0002:00008b28       ??_C@_04ENMBGAPA@char@     0000000180023b28     binding.obj
 0002:00008b30       ??_C@_05GBMOKKDM@uchar@    0000000180023b30     binding.obj
 0002:00008b38       ??_C@_05BFKKPKCG@short@    0000000180023b38     binding.obj
 0002:00008b40       ??_C@_06IHFEHLHH@ushort@   0000000180023b40     binding.obj
 0002:00008b48       ??_C@_03JBIPMCLC@int@      0000000180023b48     binding.obj
 0002:00008b4c       ??_C@_04EHNLIFAM@uint@     0000000180023b4c     binding.obj
 0002:00008b54       ??_C@_04GOKPGOLB@long@     0000000180023b54     binding.obj
 0002:00008b5c       ??_C@_05ECKAKEHN@ulong@    0000000180023b5c     binding.obj
 0002:00008b68       ??_C@_08DDGAEFPP@longlong@ 0000000180023b68     binding.obj
 0002:00008b78       ??_C@_09CGIDHHPL@ulonglong@ 0000000180023b78     binding.obj
 0002:00008b88       ??_C@_07PFMCDPMA@pointer@  0000000180023b88     binding.obj
 0002:00008b90       ??_C@_06DMBJOIF@size_t@    0000000180023b90     binding.obj
 0002:00008b98       ??_C@_06ELFECKBG@Object@   0000000180023b98     binding.obj
 0002:00008ba0       ??_C@_06FPFOALMG@sizeof@   0000000180023ba0     binding.obj
 0002:00008ba8       ??_C@_07GFLGJDOB@alignof@  0000000180023ba8     binding.obj
 0002:00008bb0       ??_C@_07OHNGEDJK@nullptr@  0000000180023bb0     binding.obj
 0002:00008bb8       ??_C@_04HIBGFPH@NULL@      0000000180023bb8     binding.obj
 0002:00008bc0       ??_C@_07LHEPONKL@address@  0000000180023bc0     binding.obj
 0002:00008bc8       ??_C@_0L@NGDODIPM@hexAddress@ 0000000180023bc8     binding.obj
 0002:00008bd4       ??_C@_06MCKMPGLB@isNull@   0000000180023bd4     binding.obj
 0002:00008be0       ??_C@_0L@DDIGFLCE@readObject@ 0000000180023be0     binding.obj
 0002:00008bf0       ??_C@_0M@EDMHKDPC@writeObject@ 0000000180023bf0     binding.obj
 0002:00008c00       ??_C@_0M@MEBLNOGH@readPointer@ 0000000180023c00     binding.obj
 0002:00008c10       ??_C@_0N@KLNLOIHO@writePointer@ 0000000180023c10     binding.obj
 0002:00008c20       ??_C@_09OKEBABIC@readInt64@ 0000000180023c20     binding.obj
 0002:00008c30       ??_C@_0L@MBENFIIH@writeInt64@ 0000000180023c30     binding.obj
 0002:00008c40       ??_C@_0L@BKGIFIDF@readUInt64@ 0000000180023c40     binding.obj
 0002:00008c50       ??_C@_0M@GKCJKAOD@writeUInt64@ 0000000180023c50     binding.obj
 0002:00008c60       ??_C@_0M@NKCHMKPI@readCString@ 0000000180023c60     binding.obj
 0002:00008c70       ??_C@_0M@FOFOAEAO@reinterpret@ 0000000180023c70     binding.obj
 0002:00008c80       ??_C@_0BG@OCDBEFEP@reinterpretUntilZeros@ 0000000180023c80     binding.obj
 0002:00008c98       ??_C@_0DH@BPAJAFBI@s?3?2my_project?2tes?2node_modules?2@ 0000000180023c98     binding.obj
 0002:00008cd0       ??_C@_07GGKKJCAC@binding@  0000000180023cd0     binding.obj
 0002:00008cd8       ??_C@_0BI@NHGHJMKC@Reference?$DMT?$DO?3?3Reference@ 0000000180023cd8     binding.obj
 0002:00008cf0       ??_C@_0BA@JFNIOLAK@string?5too?5long@ 0000000180023cf0     binding.obj
 0002:00008d00       ??_7TypeError@Napi@@6B@    0000000180023d00     binding.obj
 0002:00008d00       ??_7Error@Napi@@6B@        0000000180023d00     binding.obj
 0002:00008d18       ??_7exception@stdext@@6B@  0000000180023d18     binding.obj
 0002:00008d30       ??_C@_08HCOMDCCD@iojs?4exe@ 0000000180023d30     win_delay_load_hook.obj
 0002:00008d40       ??_C@_08JDDNMFDB@node?4exe@ 0000000180023d40     win_delay_load_hook.obj
 0002:00008d50       __pfnDliNotifyHook2        0000000180023d50     win_delay_load_hook.obj
 0002:00008fb0       __real@3ff0000000000000    0000000180023fb0     binding.obj
 0002:00008fb8       __real@4000000000000000    0000000180023fb8     binding.obj
 0002:00008fc0       __real@4010000000000000    0000000180023fc0     binding.obj
 0002:00008fc8       __real@4020000000000000    0000000180023fc8     binding.obj
 0002:00008fd0       __real@4038000000000000    0000000180023fd0     binding.obj
 0002:00008fd8       __real@43f0000000000000    0000000180023fd8     binding.obj
 0002:00009050       ??_R4exception@std@@6B@    0000000180024050     libcpmt:xthrow.obj
 0002:00009078       ??_R3exception@std@@8      0000000180024078     libcpmt:xthrow.obj
 0002:00009090       ??_R2exception@std@@8      0000000180024090     libcpmt:xthrow.obj
 0002:000090a0       ??_R1A@?0A@EA@exception@std@@8 00000001800240a0     libcpmt:xthrow.obj
 0002:000090c8       ??_R4bad_alloc@std@@6B@    00000001800240c8     libcpmt:xthrow.obj
 0002:000090f0       ??_R3bad_alloc@std@@8      00000001800240f0     libcpmt:xthrow.obj
 0002:00009108       ??_R2bad_alloc@std@@8      0000000180024108     libcpmt:xthrow.obj
 0002:00009120       ??_R1A@?0A@EA@bad_alloc@std@@8 0000000180024120     libcpmt:xthrow.obj
 0002:00009148       ??_R4logic_error@std@@6B@  0000000180024148     libcpmt:xthrow.obj
 0002:00009170       ??_R3logic_error@std@@8    0000000180024170     libcpmt:xthrow.obj
 0002:00009188       ??_R2logic_error@std@@8    0000000180024188     libcpmt:xthrow.obj
 0002:000091a0       ??_R1A@?0A@EA@logic_error@std@@8 00000001800241a0     libcpmt:xthrow.obj
 0002:000091c8       ??_R4length_error@std@@6B@ 00000001800241c8     libcpmt:xthrow.obj
 0002:000091f0       ??_R3length_error@std@@8   00000001800241f0     libcpmt:xthrow.obj
 0002:00009208       ??_R2length_error@std@@8   0000000180024208     libcpmt:xthrow.obj
 0002:00009228       ??_R1A@?0A@EA@length_error@std@@8 0000000180024228     libcpmt:xthrow.obj
 0002:00009250       ??_R4type_info@@6B@        0000000180024250     LIBCMT:std_type_info_static.obj
 0002:00009278       ??_R3type_info@@8          0000000180024278     LIBCMT:std_type_info_static.obj
 0002:00009290       ??_R2type_info@@8          0000000180024290     LIBCMT:std_type_info_static.obj
 0002:000092a0       ??_R1A@?0A@EA@type_info@@8 00000001800242a0     LIBCMT:std_type_info_static.obj
 0002:000092c8       ??_R4bad_array_new_length@std@@6B@ 00000001800242c8     LIBCMT:throw_bad_alloc.obj
 0002:000092f0       ??_R3bad_array_new_length@std@@8 00000001800242f0     LIBCMT:throw_bad_alloc.obj
 0002:00009308       ??_R2bad_array_new_length@std@@8 0000000180024308     LIBCMT:throw_bad_alloc.obj
 0002:00009328       ??_R1A@?0A@EA@bad_array_new_length@std@@8 0000000180024328     LIBCMT:throw_bad_alloc.obj
 0002:00009350       ??_R4bad_exception@std@@6B@ 0000000180024350     libvcruntime:frame.obj
 0002:00009378       ??_R3bad_exception@std@@8  0000000180024378     libvcruntime:frame.obj
 0002:00009390       ??_R2bad_exception@std@@8  0000000180024390     libvcruntime:frame.obj
 0002:000093a8       ??_R1A@?0A@EA@bad_exception@std@@8 00000001800243a8     libvcruntime:frame.obj
 0002:00009780       __rtc_iaa                  0000000180024780     LIBCMT:initsect.obj
 0002:00009788       __rtc_izz                  0000000180024788     LIBCMT:initsect.obj
 0002:00009790       __rtc_taa                  0000000180024790     LIBCMT:initsect.obj
 0002:00009798       __rtc_tzz                  0000000180024798     LIBCMT:initsect.obj
 0002:0000b720       _TI2?AVbad_alloc@std@@     0000000180026720     libcpmt:xthrow.obj
 0002:0000b740       _CTA2?AVbad_alloc@std@@    0000000180026740     libcpmt:xthrow.obj
 0002:0000b758       _CT??_R0?AVbad_alloc@std@@@8??0bad_alloc@std@@QEAA@AEBV01@@Z24 0000000180026758     libcpmt:xthrow.obj
 0002:0000b780       _CT??_R0?AVexception@std@@@8??0exception@std@@QEAA@AEBV01@@Z24 0000000180026780     libcpmt:xthrow.obj
 0002:0000b7a8       _CT??_R0?AVlogic_error@std@@@8??0logic_error@std@@QEAA@AEBV01@@Z24 00000001800267a8     libcpmt:xthrow.obj
 0002:0000b7d0       _TI3?AVlength_error@std@@  00000001800267d0     libcpmt:xthrow.obj
 0002:0000b7f0       _CTA3?AVlength_error@std@@ 00000001800267f0     libcpmt:xthrow.obj
 0002:0000b810       _CT??_R0?AVlength_error@std@@@8??0length_error@std@@QEAA@AEBV01@@Z24 0000000180026810     libcpmt:xthrow.obj
 0002:0000b838       _TI3?AVbad_array_new_length@std@@ 0000000180026838     LIBCMT:throw_bad_alloc.obj
 0002:0000b858       _CTA3?AVbad_array_new_length@std@@ 0000000180026858     LIBCMT:throw_bad_alloc.obj
 0002:0000b878       _CT??_R0?AVbad_array_new_length@std@@@8??0bad_array_new_length@std@@QEAA@AEBV01@@Z24 0000000180026878     LIBCMT:throw_bad_alloc.obj
 0002:0000b8a0       _TI2?AVbad_exception@std@@ 00000001800268a0     libvcruntime:frame.obj
 0002:0000b8c0       _CTA2?AVbad_exception@std@@ 00000001800268c0     libvcruntime:frame.obj
 0002:0000b8d8       _CT??_R0?AVbad_exception@std@@@8??0bad_exception@std@@QEAA@AEBV01@@Z24 00000001800268d8     libvcruntime:frame.obj
 0002:0000b900       _TI4?AVError@Napi@@        0000000180026900     binding.obj
 0002:0000b920       _CTA5?AVTypeError@Napi@@   0000000180026920     binding.obj
 0002:0000b950       _TI5?AVTypeError@Napi@@    0000000180026950     binding.obj
 0002:0000b970       _CT??_R0?AVexception@stdext@@@8??0exception@stdext@@QEAA@AEBV01@@Z16 0000000180026970     binding.obj
 0002:0000b998       _CT??_R0?AVTypeError@Napi@@@8??0TypeError@Napi@@QEAA@AEBV01@@Z72 0000000180026998     binding.obj
 0002:0000b9c0       _CT??_R0?AVError@Napi@@@8??0Error@Napi@@QEAA@AEBV01@@Z72 00000001800269c0     binding.obj
 0002:0000b9e8       _CTA4?AVError@Napi@@       00000001800269e8     binding.obj
 0002:0000ba10       _CT??_R0?AV?$Reference@VObject@Napi@@@Napi@@@8??0?$Reference@VObject@Napi@@@Napi@@IEAA@AEBV01@@Z2416 0000000180026a10     binding.obj
 0002:0000ba38       _CT??_R0?AVObjectReference@Napi@@@8??0ObjectReference@Napi@@IEAA@AEBV01@@Z2416 0000000180026a38     binding.obj
 0002:0000ba5c       __DELAY_IMPORT_DESCRIPTOR_node_exe 0000000180026a5c     node:node.exe
 0002:0000ba7c       __NULL_DELAY_IMPORT_DESCRIPTOR 0000000180026a7c     node:node.exe
 0002:0000bbc8       \177node_NULL_THUNK_DATA_DLN 0000000180026bc8     node:node.exe
 0002:0000bf70       \177node_NULL_THUNK_DATA_DLB 0000000180026f70     node:node.exe
 0002:0000c0f4       __IMPORT_DESCRIPTOR_KERNEL32 00000001800270f4     kernel32:KERNEL32.dll
 0002:0000c108       __NULL_IMPORT_DESCRIPTOR   0000000180027108     kernel32:KERNEL32.dll
 0003:00000000       __security_cookie_complement 0000000180028000     LIBCMT:gs_cookie.obj
 0003:00000008       __security_cookie          0000000180028008     LIBCMT:gs_cookie.obj
 0003:00000010       __scrt_native_dllmain_reason 0000000180028010     LIBCMT:utility.obj
 0003:00000018       __isa_available            0000000180028018     LIBCMT:cpu_disp.obj
 0003:0000001c       __isa_enabled              000000018002801c     LIBCMT:cpu_disp.obj
 0003:00000020       __memcpy_nt_iters          0000000180028020     LIBCMT:cpu_disp.obj
 0003:00000048       __abort_behavior           0000000180028048     libucrt:abort.obj
 0003:00000060       __acrt_initial_locale_data 0000000180028060     libucrt:nlsdata.obj
 0003:000001b8       __acrt_initial_locale_pointers 00000001800281b8     libucrt:nlsdata.obj
 0003:000001c8       __acrt_wide_c_locale_string 00000001800281c8     libucrt:nlsdata.obj
 0003:000001d0       _iob                       00000001800281d0     libucrt:_file.obj
 0003:000005f0       __acrt_initial_multibyte_data 00000001800285f0     libucrt:mbctype.obj
 0003:00000818       __globallocalestatus       0000000180028818     libucrt:glstatus.obj
 0003:00000820       __acrt_lconv_c             0000000180028820     libucrt:localeconv.obj
 0003:000008b8       __acrt_lconv_static_decimal 00000001800288b8     libucrt:localeconv.obj
 0003:000008bc       __acrt_lconv_static_W_decimal 00000001800288bc     libucrt:localeconv.obj
 0003:000008c0       _lookuptrailbytes          00000001800288c0     libucrt:read.obj
 0003:000009e0       _fltused                   00000001800289e0     LIBCMT:fltused.obj
 0003:00000a38       ??_R0?AVbad_alloc@std@@@8  0000000180028a38     libcpmt:xthrow.obj
 0003:00000a60       ??_R0?AVexception@std@@@8  0000000180028a60     libcpmt:xthrow.obj
 0003:00000a88       ??_R0?AVlogic_error@std@@@8 0000000180028a88     libcpmt:xthrow.obj
 0003:00000ab0       ??_R0?AVlength_error@std@@@8 0000000180028ab0     libcpmt:xthrow.obj
 0003:00000ad8       ??_R0?AVtype_info@@@8      0000000180028ad8     LIBCMT:std_type_info_static.obj
 0003:00000af8       ??_R0?AVbad_array_new_length@std@@@8 0000000180028af8     LIBCMT:throw_bad_alloc.obj
 0003:00000b28       ??_R0?AVbad_exception@std@@@8 0000000180028b28     libvcruntime:frame.obj
 0003:00000b50       ??_R0?AVexception@stdext@@@8 0000000180028b50     binding.obj
 0003:00000b78       ??_R0?AVObjectReference@Napi@@@8 0000000180028b78     binding.obj
 0003:00000ba8       ??_R0?AVTypeError@Napi@@@8 0000000180028ba8     binding.obj
 0003:00000bd0       ??_R0?AV?$Reference@VObject@Napi@@@Napi@@@8 0000000180028bd0     binding.obj
 0003:00000c08       ??_R0?AVError@Napi@@@8     0000000180028c08     binding.obj
 0003:00000c30       __imp_napi_create_function 0000000180028c30     node:node.exe
 0003:00000c38       __imp_napi_create_double   0000000180028c38     node:node.exe
 0003:00000c40       __imp_napi_open_handle_scope 0000000180028c40     node:node.exe
 0003:00000c48       __imp_napi_coerce_to_number 0000000180028c48     node:node.exe
 0003:00000c50       __imp_napi_get_boolean     0000000180028c50     node:node.exe
 0003:00000c58       __imp_napi_get_last_error_info 0000000180028c58     node:node.exe
 0003:00000c60       __imp_napi_create_error    0000000180028c60     node:node.exe
 0003:00000c68       __imp_napi_is_buffer       0000000180028c68     node:node.exe
 0003:00000c70       __imp_napi_delete_reference 0000000180028c70     node:node.exe
 0003:00000c78       __imp_napi_fatal_error     0000000180028c78     node:node.exe
 0003:00000c80       __imp_napi_is_exception_pending 0000000180028c80     node:node.exe
 0003:00000c88       __imp_napi_create_symbol   0000000180028c88     node:node.exe
 0003:00000c90       __imp_napi_get_value_string_utf8 0000000180028c90     node:node.exe
 0003:00000c98       __imp_napi_close_escapable_handle_scope 0000000180028c98     node:node.exe
 0003:00000ca0       __imp_napi_escape_handle   0000000180028ca0     node:node.exe
 0003:00000ca8       __imp_napi_get_buffer_info 0000000180028ca8     node:node.exe
 0003:00000cb0       __imp_napi_create_type_error 0000000180028cb0     node:node.exe
 0003:00000cb8       __imp_napi_create_external 0000000180028cb8     node:node.exe
 0003:00000cc0       __imp_napi_create_string_utf8 0000000180028cc0     node:node.exe
 0003:00000cc8       __imp_napi_module_register 0000000180028cc8     node:node.exe
 0003:00000cd0       __imp_napi_set_named_property 0000000180028cd0     node:node.exe
 0003:00000cd8       __imp_napi_create_external_buffer 0000000180028cd8     node:node.exe
 0003:00000ce0       __imp_napi_get_named_property 0000000180028ce0     node:node.exe
 0003:00000ce8       __imp_napi_get_value_int64 0000000180028ce8     node:node.exe
 0003:00000cf0       __imp_napi_define_properties 0000000180028cf0     node:node.exe
 0003:00000cf8       __imp_napi_typeof          0000000180028cf8     node:node.exe
 0003:00000d00       __imp_napi_throw           0000000180028d00     node:node.exe
 0003:00000d08       __imp_napi_get_value_uint32 0000000180028d08     node:node.exe
 0003:00000d10       __imp_napi_get_and_clear_last_exception 0000000180028d10     node:node.exe
 0003:00000d18       __imp_napi_create_object   0000000180028d18     node:node.exe
 0003:00000d20       __imp_napi_get_undefined   0000000180028d20     node:node.exe
 0003:00000d28       __imp_napi_get_typedarray_info 0000000180028d28     node:node.exe
 0003:00000d30       __imp_napi_get_cb_info     0000000180028d30     node:node.exe
 0003:00000d38       __imp_napi_open_escapable_handle_scope 0000000180028d38     node:node.exe
 0003:00000d40       __imp_napi_create_reference 0000000180028d40     node:node.exe
 0003:00000d48       __imp_napi_close_handle_scope 0000000180028d48     node:node.exe
 0003:00000d50       __imp_napi_get_reference_value 0000000180028d50     node:node.exe
 0003:00000d58       \177node_NULL_THUNK_DATA_DLA 0000000180028d58     node:node.exe
 0003:00000d60       __hmod__node_exe           0000000180028d60     node:node.exe
 0003:000012e0       ?__type_info_root_node@@3U__type_info_node@@A 00000001800292e0     LIBCMT:tncleanup.obj
 0003:000012f0       ?_OptionsStorage@?1??__local_stdio_scanf_options@@9@4_KA 00000001800292f0     LIBCMT:default_local_stdio_options.obj
 0003:000012f8       __scrt_current_native_startup_state 00000001800292f8     LIBCMT:utility.obj
 0003:00001300       __scrt_native_startup_lock 0000000180029300     LIBCMT:utility.obj
 0003:00001340       __scrt_debugger_hook_flag  0000000180029340     LIBCMT:utility_desktop.obj
 0003:00001344       __favor                    0000000180029344     LIBCMT:cpu_disp.obj
 0003:00001348       ?__WinRTOutOfMemoryExceptionCallback@@3P6APEAXXZEA 0000000180029348     libvcruntime:ehhelpers.obj
 0003:000013e0       ?pArgList@UnDecorator@@0PEAVReplicator@@EA 00000001800293e0     libvcruntime:undname.obj
 0003:000013e8       ?pZNameList@UnDecorator@@0PEAVReplicator@@EA 00000001800293e8     libvcruntime:undname.obj
 0003:000013f0       ?pTemplateArgList@UnDecorator@@0PEAVReplicator@@EA 00000001800293f0     libvcruntime:undname.obj
 0003:000013f8       ?gName@UnDecorator@@0PEBDEB 00000001800293f8     libvcruntime:undname.obj
 0003:00001400       ?name@UnDecorator@@0PEBDEB 0000000180029400     libvcruntime:undname.obj
 0003:00001408       ?disableFlags@UnDecorator@@0KA 0000000180029408     libvcruntime:undname.obj
 0003:0000140c       ?fExplicitTemplateParams@UnDecorator@@0_NA 000000018002940c     libvcruntime:undname.obj
 0003:0000140d       ?fGetTemplateArgumentList@UnDecorator@@0_NA 000000018002940d     libvcruntime:undname.obj
 0003:00001410       ?m_pGetParameter@UnDecorator@@0P6APEADJ@ZEA 0000000180029410     libvcruntime:undname.obj
 0003:00001418       ?m_CHPENameOffset@UnDecorator@@0KA 0000000180029418     libvcruntime:undname.obj
 0003:0000141c       ?m_recursionLevel@UnDecorator@@0KA 000000018002941c     libvcruntime:undname.obj
 0003:000014b8       __pPurecall                00000001800294b8     libvcruntime:purevirt_data.obj
 0003:000014e0       ?c_exit_complete@?1???R<lambda_6e4b09c48022b2350581041d5f6b0c4c>@@QEBA@XZ@4_NA 00000001800294e0     libucrt:exit.obj
 0003:000015f8       _environ_table             00000001800295f8     libucrt:environment_initialization.obj
 0003:00001600       _wenviron_table            0000000180029600     libucrt:environment_initialization.obj
 0003:00001608       __dcrt_initial_wide_environment 0000000180029608     libucrt:environment_initialization.obj
 0003:00001610       __dcrt_initial_narrow_environment 0000000180029610     libucrt:environment_initialization.obj
 0003:00001618       __acrt_atexit_table        0000000180029618     libucrt:onexit.obj
 0003:00001630       __acrt_at_quick_exit_table 0000000180029630     libucrt:onexit.obj
 0003:00001648       __acrt_locale_changed_data 0000000180029648     libucrt:wsetlocale.obj
 0003:00001650       __acrt_current_locale_data 0000000180029650     libucrt:nlsdata.obj
 0003:00001660       _nstream                   0000000180029660     libucrt:_file.obj
 0003:00001668       __piob                     0000000180029668     libucrt:_file.obj
 0003:00001678       __acrt_stdout_buffer       0000000180029678     libucrt:_sftbuf.obj
 0003:00001680       __acrt_stderr_buffer       0000000180029680     libucrt:_sftbuf.obj
 0003:00001690       __pioinfo                  0000000180029690     libucrt:ioinit.obj
 0003:00001a90       _nhandle                   0000000180029a90     libucrt:ioinit.obj
 0003:00001cd8       _mbctype                   0000000180029cd8     libucrt:mbctype.obj
 0003:00001ce0       _mbcasemap                 0000000180029ce0     libucrt:mbctype.obj
 0003:00001ce8       __acrt_current_multibyte_data 0000000180029ce8     libucrt:mbctype.obj
 0003:00001cf8       _pgmptr                    0000000180029cf8     libucrt:argv_data.obj
 0003:00001d00       __argc                     0000000180029d00     libucrt:argv_data.obj
 0003:00001d08       __argv                     0000000180029d08     libucrt:argv_data.obj
 0003:00001d10       __wargv                    0000000180029d10     libucrt:argv_data.obj
 0003:00001d18       _acmdln                    0000000180029d18     libucrt:argv_data.obj
 0003:00001d20       _wcmdln                    0000000180029d20     libucrt:argv_data.obj
 0003:00001ee0       __acrt_heap                0000000180029ee0     libucrt:heap_handle.obj
 0003:00001f10       __acrt_lconv_static_null   0000000180029f10     libucrt:localeconv.obj
 0003:00001f14       __acrt_lconv_static_W_null 0000000180029f14     libucrt:localeconv.obj
 0003:00001f2c       __fma3_is_available        0000000180029f2c     libucrt:fma3_available.obj
 0003:00001f30       __use_fma3_lib             0000000180029f30     libucrt:fma3_available.obj
 0003:00001f38       ?DloadKernel32@@3PEAUHINSTANCE__@@EA 0000000180029f38     DelayImp:delayhlp.obj
 0003:00001f40       ?DloadAcquireSRWLockExclusive@@3P6AXPEA_K@ZEA 0000000180029f40     DelayImp:delayhlp.obj
 0003:00001f48       ?DloadReleaseSRWLockExclusive@@3P6AXPEA_K@ZEA 0000000180029f48     DelayImp:delayhlp.obj
 0003:00001f50       ?DloadSrwLock@@3_KA        0000000180029f50     DelayImp:delayhlp.obj
 0003:00001f58       ?DloadSectionLockCount@@3KA 0000000180029f58     DelayImp:delayhlp.obj
 0003:00001f5c       ?DloadSectionOldProtection@@3KA 0000000180029f5c     DelayImp:delayhlp.obj
 0003:00001f60       ?DloadSectionCommitPermanent@@3KA 0000000180029f60     DelayImp:delayhlp.obj
 0003:00001f68       ?_OptionsStorage@?1??__local_stdio_printf_options@@9@4_KA 0000000180029f68     binding.obj
 0003:00001f70       __scrt_ucrt_dll_is_in_use  0000000180029f70     <common>
 0003:00001f78       __dyn_tls_init_callback    0000000180029f78     <common>

 entry point at        0001:0000719c

 Static symbols

 0000:fffd2000       .debug$S                   0000000180000000     kernel32:KERNEL32.dll
 0000:fffd2000       .debug$S                   0000000180000000     kernel32:KERNEL32.dll
 0000:fffd2000       .debug$S                   0000000180000000     kernel32:KERNEL32.dll
 0000:fffd2000       .debug$S                   0000000180000000     node:node.exe
 0000:fffd2000       .debug$S                   0000000180000000     kernel32:KERNEL32.dll
 0000:fffd2000       .debug$S                   0000000180000000     kernel32:KERNEL32.dll
 0000:fffd2000       .debug$S                   0000000180000000     kernel32:KERNEL32.dll
 0000:fffd2000       .debug$S                   0000000180000000     binding.exp
 0000:fffd2000       .debug$S                   0000000180000000     kernel32:KERNEL32.dll
 0000:fffd2000       .debug$S                   0000000180000000     node:node.exe
 0000:fffd2000       .debug$S                   0000000180000000     kernel32:KERNEL32.dll
 0000:fffd2000       .debug$S                   0000000180000000     node:node.exe
 0000:fffd2000       .debug$S                   0000000180000000     kernel32:KERNEL32.dll
 0000:fffd2000       .debug$S                   0000000180000000     node:node.exe
 0000:fffd2000       .debug$S                   0000000180000000     kernel32:KERNEL32.dll
 0000:fffd2000       .debug$S                   0000000180000000     node:node.exe
 0000:fffd2000       .debug$S                   0000000180000000     kernel32:KERNEL32.dll
 0000:fffd2000       .debug$S                   0000000180000000     node:node.exe
 0000:fffd2000       .debug$S                   0000000180000000     kernel32:KERNEL32.dll
 0000:fffd2000       .debug$S                   0000000180000000     kernel32:KERNEL32.dll
 0000:fffd2000       .debug$S                   0000000180000000     kernel32:KERNEL32.dll
 0000:fffd2000       .debug$S                   0000000180000000     kernel32:KERNEL32.dll
 0000:fffd2000       .debug$S                   0000000180000000     node:node.exe
 0000:fffd2000       .debug$S                   0000000180000000     kernel32:KERNEL32.dll
 0000:fffd2000       .debug$S                   0000000180000000     node:node.exe
 0000:fffd2000       .debug$S                   0000000180000000     kernel32:KERNEL32.dll
 0000:fffd2000       .debug$S                   0000000180000000     node:node.exe
 0000:fffd2000       .debug$S                   0000000180000000     kernel32:KERNEL32.dll
 0000:fffd2000       .debug$S                   0000000180000000     node:node.exe
 0000:fffd2000       .debug$S                   0000000180000000     kernel32:KERNEL32.dll
 0000:fffd2000       .debug$S                   0000000180000000     node:node.exe
 0000:fffd2000       .debug$S                   0000000180000000     kernel32:KERNEL32.dll
 0000:fffd2000       .debug$S                   0000000180000000     node:node.exe
 0000:fffd2000       .debug$S                   0000000180000000     kernel32:KERNEL32.dll
 0000:fffd2000       .debug$S                   0000000180000000     node:node.exe
 0000:fffd2000       .debug$S                   0000000180000000     kernel32:KERNEL32.dll
 0000:fffd2000       .debug$S                   0000000180000000     node:node.exe
 0000:fffd2000       .debug$S                   0000000180000000     kernel32:KERNEL32.dll
 0000:fffd2000       .debug$S                   0000000180000000     kernel32:KERNEL32.dll
 0000:fffd2000       .debug$S                   0000000180000000     kernel32:KERNEL32.dll
 0000:fffd2000       .debug$S                   0000000180000000     kernel32:KERNEL32.dll
 0000:fffd2000       .debug$S                   0000000180000000     node:node.exe
 0000:fffd2000       .debug$S                   0000000180000000     kernel32:KERNEL32.dll
 0000:fffd2000       .debug$S                   0000000180000000     node:node.exe
 0000:fffd2000       .debug$S                   0000000180000000     kernel32:KERNEL32.dll
 0000:fffd2000       .debug$S                   0000000180000000     kernel32:KERNEL32.dll
 0000:fffd2000       .debug$S                   0000000180000000     kernel32:KERNEL32.dll
 0000:fffd2000       .debug$S                   0000000180000000     kernel32:KERNEL32.dll
 0000:fffd2000       .debug$S                   0000000180000000     kernel32:KERNEL32.dll
 0000:fffd2000       .debug$S                   0000000180000000     kernel32:KERNEL32.dll
 0000:fffd2000       .debug$S                   0000000180000000     node:node.exe
 0000:fffd2000       .debug$S                   0000000180000000     kernel32:KERNEL32.dll
 0000:fffd2000       .debug$S                   0000000180000000     kernel32:KERNEL32.dll
 0000:fffd2000       .debug$S                   0000000180000000     kernel32:KERNEL32.dll
 0000:fffd2000       .debug$S                   0000000180000000     kernel32:KERNEL32.dll
 0000:fffd2000       .debug$S                   0000000180000000     node:node.exe
 0000:fffd2000       .debug$S                   0000000180000000     kernel32:KERNEL32.dll
 0000:fffd2000       .debug$S                   0000000180000000     node:node.exe
 0000:fffd2000       .debug$S                   0000000180000000     kernel32:KERNEL32.dll
 0000:fffd2000       .debug$S                   0000000180000000     node:node.exe
 0000:fffd2000       .debug$S                   0000000180000000     kernel32:KERNEL32.dll
 0000:fffd2000       .debug$S                   0000000180000000     node:node.exe
 0000:fffd2000       .debug$S                   0000000180000000     kernel32:KERNEL32.dll
 0000:fffd2000       .debug$S                   0000000180000000     kernel32:KERNEL32.dll
 0000:fffd2000       .debug$S                   0000000180000000     kernel32:KERNEL32.dll
 0000:fffd2000       .debug$S                   0000000180000000     kernel32:KERNEL32.dll
 0000:fffd2000       .debug$S                   0000000180000000     node:node.exe
 0000:fffd2000       .debug$S                   0000000180000000     kernel32:KERNEL32.dll
 0000:fffd2000       .debug$S                   0000000180000000     node:node.exe
 0000:fffd2000       .debug$S                   0000000180000000     kernel32:KERNEL32.dll
 0000:fffd2000       .debug$S                   0000000180000000     node:node.exe
 0000:fffd2000       .debug$S                   0000000180000000     kernel32:KERNEL32.dll
 0000:fffd2000       .debug$S                   0000000180000000     node:node.exe
 0000:fffd2000       .debug$S                   0000000180000000     kernel32:KERNEL32.dll
 0000:fffd2000       .debug$S                   0000000180000000     node:node.exe
 0000:fffd2000       .debug$S                   0000000180000000     kernel32:KERNEL32.dll
 0000:fffd2000       .debug$S                   0000000180000000     node:node.exe
 0000:fffd2000       .debug$S                   0000000180000000     kernel32:KERNEL32.dll
 0000:fffd2000       .debug$S                   0000000180000000     node:node.exe
 0000:fffd2000       .debug$S                   0000000180000000     kernel32:KERNEL32.dll
 0000:fffd2000       .debug$S                   0000000180000000     node:node.exe
 0000:fffd2000       .debug$S                   0000000180000000     kernel32:KERNEL32.dll
 0000:fffd2000       .debug$S                   0000000180000000     kernel32:KERNEL32.dll
 0000:fffd2000       .debug$S                   0000000180000000     kernel32:KERNEL32.dll
 0000:fffd2000       .debug$S                   0000000180000000     kernel32:KERNEL32.dll
 0000:fffd2000       .debug$S                   0000000180000000     node:node.exe
 0000:fffd2000       .debug$S                   0000000180000000     kernel32:KERNEL32.dll
 0000:fffd2000       .debug$S                   0000000180000000     node:node.exe
 0000:fffd2000       .debug$S                   0000000180000000     kernel32:KERNEL32.dll
 0000:fffd2000       .debug$S                   0000000180000000     node:node.exe
 0000:fffd2000       .debug$S                   0000000180000000     kernel32:KERNEL32.dll
 0000:fffd2000       .debug$S                   0000000180000000     node:node.exe
 0000:fffd2000       .debug$S                   0000000180000000     kernel32:KERNEL32.dll
 0000:fffd2000       .debug$S                   0000000180000000     node:node.exe
 0000:fffd2000       .debug$S                   0000000180000000     kernel32:KERNEL32.dll
 0000:fffd2000       .debug$S                   0000000180000000     node:node.exe
 0000:fffd2000       .debug$S                   0000000180000000     kernel32:KERNEL32.dll
 0000:fffd2000       .debug$S                   0000000180000000     kernel32:KERNEL32.dll
 0000:fffd2000       .debug$S                   0000000180000000     kernel32:KERNEL32.dll
 0000:fffd2000       .debug$S                   0000000180000000     kernel32:KERNEL32.dll
 0000:fffd2000       .debug$S                   0000000180000000     node:node.exe
 0000:fffd2000       .debug$S                   0000000180000000     kernel32:KERNEL32.dll
 0000:fffd2000       .debug$S                   0000000180000000     node:node.exe
 0000:fffd2000       .debug$S                   0000000180000000     kernel32:KERNEL32.dll
 0000:fffd2000       .debug$S                   0000000180000000     kernel32:KERNEL32.dll
 0000:fffd2000       .debug$S                   0000000180000000     kernel32:KERNEL32.dll
 0000:fffd2000       .debug$S                   0000000180000000     kernel32:KERNEL32.dll
 0000:fffd2000       .debug$S                   0000000180000000     kernel32:KERNEL32.dll
 0000:fffd2000       .debug$S                   0000000180000000     kernel32:KERNEL32.dll
 0000:fffd2000       .debug$S                   0000000180000000     kernel32:KERNEL32.dll
 0000:fffd2000       .debug$S                   0000000180000000     kernel32:KERNEL32.dll
 0000:fffd2000       .debug$S                   0000000180000000     kernel32:KERNEL32.dll
 0000:fffd2000       .debug$S                   0000000180000000     kernel32:KERNEL32.dll
 0000:fffd2000       .debug$S                   0000000180000000     kernel32:KERNEL32.dll
 0000:fffd2000       .debug$S                   0000000180000000     kernel32:KERNEL32.dll
 0000:fffd2000       .debug$S                   0000000180000000     kernel32:KERNEL32.dll
 0000:fffd2000       .debug$S                   0000000180000000     kernel32:KERNEL32.dll
 0000:fffd2000       .debug$S                   0000000180000000     kernel32:KERNEL32.dll
 0000:fffd2000       .debug$S                   0000000180000000     kernel32:KERNEL32.dll
 0000:fffd2000       .debug$S                   0000000180000000     kernel32:KERNEL32.dll
 0000:fffd2000       .debug$S                   0000000180000000     kernel32:KERNEL32.dll
 0000:fffd2000       .debug$S                   0000000180000000     kernel32:KERNEL32.dll
 0000:fffd2000       .debug$S                   0000000180000000     kernel32:KERNEL32.dll
 0000:fffd2000       .debug$S                   0000000180000000     kernel32:KERNEL32.dll
 0000:fffd2000       .debug$S                   0000000180000000     kernel32:KERNEL32.dll
 0000:fffd2000       .debug$S                   0000000180000000     kernel32:KERNEL32.dll
 0000:fffd2000       .debug$S                   0000000180000000     kernel32:KERNEL32.dll
 0001:000012f0       ?AddressForArgs@?A0x89cbbd6c@@YAPEADAEBVCallbackInfo@Napi@@_K@Z 00000001800022f0 f   binding.obj
 0001:00001720       ?Address@?A0x89cbbd6c@@YA?AVValue@Napi@@AEBVCallbackInfo@3@@Z 0000000180002720 f   binding.obj
 0001:000017e0       ?HexAddress@?A0x89cbbd6c@@YA?AVValue@Napi@@AEBVCallbackInfo@3@@Z 00000001800027e0 f   binding.obj
 0001:000018f0       ?IsNull@?A0x89cbbd6c@@YA?AVValue@Napi@@AEBVCallbackInfo@3@@Z 00000001800028f0 f   binding.obj
 0001:000019a0       ?WrapPointer@?A0x89cbbd6c@@YA?AVValue@Napi@@VEnv@3@PEAD_K@Z 00000001800029a0 f   binding.obj
 0001:00001b00       ?ReadObject@?A0x89cbbd6c@@YA?AVValue@Napi@@AEBVCallbackInfo@3@@Z 0000000180002b00 f   binding.obj
 0001:00001c10       ?WriteObject@?A0x89cbbd6c@@YAXAEBVCallbackInfo@Napi@@@Z 0000000180002c10 f   binding.obj
 0001:00001e00       ?ReadPointer@?A0x89cbbd6c@@YA?AVValue@Napi@@AEBVCallbackInfo@3@@Z 0000000180002e00 f   binding.obj
 0001:00001f50       ?WritePointer@?A0x89cbbd6c@@YAXAEBVCallbackInfo@Napi@@@Z 0000000180002f50 f   binding.obj
 0001:000021a0       ?ReadInt64@?A0x89cbbd6c@@YA?AVValue@Napi@@AEBVCallbackInfo@3@@Z 00000001800031a0 f   binding.obj
 0001:00002340       ?WriteInt64@?A0x89cbbd6c@@YAXAEBVCallbackInfo@Napi@@@Z 0000000180003340 f   binding.obj
 0001:00002660       ?ReadUInt64@?A0x89cbbd6c@@YA?AVValue@Napi@@AEBVCallbackInfo@3@@Z 0000000180003660 f   binding.obj
 0001:00002810       ?WriteUInt64@?A0x89cbbd6c@@YAXAEBVCallbackInfo@Napi@@@Z 0000000180003810 f   binding.obj
 0001:00002b20       ?ReadCString@?A0x89cbbd6c@@YA?AVValue@Napi@@AEBVCallbackInfo@3@@Z 0000000180003b20 f   binding.obj
 0001:00002c20       ?ReinterpretBuffer@?A0x89cbbd6c@@YA?AVValue@Napi@@AEBVCallbackInfo@3@@Z 0000000180003c20 f   binding.obj
 0001:00002d70       ?ReinterpretBufferUntilZeros@?A0x89cbbd6c@@YA?AVValue@Napi@@AEBVCallbackInfo@3@@Z 0000000180003d70 f   binding.obj
 0001:00005b60       _register_binding          0000000180006b60 f   binding.obj
 0001:00006810       ?Wrapper@?$FinalizeData@DV<lambda_9a87a554419a0b631f8706c33e6adb6a>@@X@details@Napi@@SAXPEAUnapi_env__@@PEAX1@Z 0000000180007810 f   binding.obj
 0001:00006930       ?<lambda_invoker_cdecl>@<lambda_b3852c3e1b8178fcfbf9bcfb528b9bb1>@@CAXPEAUnapi_env__@@PEAX1@Z 0000000180007930 f   binding.obj
 0001:00006930       ?<lambda_invoker_cdecl>@<lambda_429eecbda221b473ae46d4f12d46f31b>@@CAXPEAUnapi_env__@@PEAX1@Z 0000000180007930 f   binding.obj
 0001:00006940       ?load_exe_hook@@YAP6A_JXZIPEAUDelayLoadInfo@@@Z 0000000180007940 f   win_delay_load_hook.obj
 0001:00006dc0       $$000000                   0000000180007dc0     LIBCMT:amdsecgs.obj
 0001:00006e6c       ?dllmain_crt_dispatch@@YAHQEAUHINSTANCE__@@KQEAX@Z 0000000180007e6c f   LIBCMT:dll_dllmain.obj
 0001:00006ebc       ?dllmain_crt_process_attach@@YAHQEAUHINSTANCE__@@QEAX@Z 0000000180007ebc f   LIBCMT:dll_dllmain.obj
 0001:00006fd8       ?dllmain_crt_process_detach@@YAH_N@Z 0000000180007fd8 f   LIBCMT:dll_dllmain.obj
 0001:00007068       ?dllmain_dispatch@@YAHQEAUHINSTANCE__@@KQEAX@Z 0000000180008068 f   LIBCMT:dll_dllmain.obj
 0001:00007394       capture_current_context    0000000180008394 f   LIBCMT:gs_report.obj
 0001:00007404       capture_previous_context   0000000180008404 f   LIBCMT:gs_report.obj
 0001:00008860       $$000000                   0000000180009860     libvcruntime:memset.obj
 0001:0000895c       MsetTab                    000000018000995c     libvcruntime:memset.obj
 0001:00008cfc       ??$BuildCatchObjectHelperInternal@V__FrameHandler3@@@@YAHPEAUEHExceptionRecord@@PEAXPEBU_s_HandlerType@@PEBU_s_CatchableType@@@Z 0000000180009cfc f   libvcruntime:frame.obj
 0001:00008efc       ??$BuildCatchObjectInternal@V__FrameHandler3@@@@YAXPEAUEHExceptionRecord@@PEAXPEBU_s_HandlerType@@PEBU_s_CatchableType@@@Z 0000000180009efc f   libvcruntime:frame.obj
 0001:00008fbc       ??$CatchIt@V__FrameHandler3@@@@YAXPEAUEHExceptionRecord@@PEA_KPEAU_CONTEXT@@PEAU_xDISPATCHER_CONTEXT@@PEBU_s_FuncInfo@@PEBU_s_HandlerType@@PEBU_s_CatchableType@@PEBU_s_TryBlockMapEntry@@H1EE@Z 0000000180009fbc f   libvcruntime:frame.obj
 0001:0000908c       ??$FindHandler@V__FrameHandler3@@@@YAXPEAUEHExceptionRecord@@PEA_KPEAU_CONTEXT@@PEAU_xDISPATCHER_CONTEXT@@PEBU_s_FuncInfo@@EH1@Z 000000018000a08c f   libvcruntime:frame.obj
 0001:000094f0       ??$FindHandlerForForeignException@V__FrameHandler3@@@@YAXPEAUEHExceptionRecord@@PEA_KPEAU_CONTEXT@@PEAU_xDISPATCHER_CONTEXT@@PEBU_s_FuncInfo@@HH1@Z 000000018000a4f0 f   libvcruntime:frame.obj
 0001:00009cf8       ?ExFilterRethrow@@YAHPEAU_EXCEPTION_POINTERS@@PEAUEHExceptionRecord@@PEAH@Z 000000018000acf8 f   libvcruntime:frame.obj
 0001:00009fac       ?IsInExceptionSpec@@YAEPEAUEHExceptionRecord@@PEBU_s_ESTypeList@@@Z 000000018000afac f   libvcruntime:frame.obj
 0001:0000a084       ?Is_bad_exception_allowed@@YAEPEBU_s_ESTypeList@@@Z 000000018000b084 f   libvcruntime:frame.obj
 0001:0000a140       $$000000                   000000018000b140     libvcruntime:notify.obj
 0001:0000a23c       ?try_get_function@@YAPEAXW4function_id@?A0x14c33c87@@QEBDQEBW4module_id@2@2@Z 000000018000b23c f   libvcruntime:winapi_downlevel.obj
 0001:0000a630       $$000000                   000000018000b630     libvcruntime:handlers.obj
 0001:0000a6e0       $$000000                   000000018000b6e0     libvcruntime:memcpy.obj
 0001:0000a797       MoveSmall                  000000018000b797     libvcruntime:memcpy.obj
 0001:0000b2f4       ??$common_vsprintf@Vformat_validation_base@__crt_stdio_output@@D@@YAH_KQEAD0QEBDQEAU__crt_locale_pointers@@1@Z 000000018000c2f4 f   libucrt:output.obj
 0001:0000d09c       ??$?RV<lambda_d80eeec6fff315bfe5c115232f3240e3>@@AEAV<lambda_6e4b09c48022b2350581041d5f6b0c4c>@@V<lambda_2358e3775559c9db80273638284d5e45>@@@?$__crt_seh_guarded_call@X@@QEAAX$$QEAV<lambda_d80eeec6fff315bfe5c115232f3240e3>@@AEAV<lambda_6e4b09c48022b2350581041d5f6b0c4c>@@$$QEAV<lambda_2358e3775559c9db80273638284d5e45>@@@Z 000000018000e09c f   libucrt:exit.obj
 0001:0000d0d4       ??R<lambda_6e4b09c48022b2350581041d5f6b0c4c>@@QEBA@XZ 000000018000e0d4 f   libucrt:exit.obj
 0001:0000d198       ?atexit_exception_filter@@YAHK@Z 000000018000e198 f   libucrt:exit.obj
 0001:0000d1a4       ?common_exit@@YAXHW4_crt_exit_cleanup_mode@@W4_crt_exit_return_mode@@@Z 000000018000e1a4 f   libucrt:exit.obj
 0001:0000d260       ?exit_or_terminate_process@@YAXI@Z 000000018000e260 f   libucrt:exit.obj
 0001:0000d2ac       ?try_cor_exit_process@@YAXI@Z 000000018000e2ac f   libucrt:exit.obj
 0001:0000d334       ??$parse_command_line@D@@YAXPEADPEAPEAD0PEA_K2@Z 000000018000e334 f   libucrt:argv_parsing.obj
 0001:0000d6e0       ??$common_initialize_environment_nolock@D@@YAHXZ 000000018000e6e0 f   libucrt:environment_initialization.obj
 0001:0000d74c       ??$create_environment@D@@YAQEAPEADQEAD@Z 000000018000e74c f   libucrt:environment_initialization.obj
 0001:0000d854       ??$free_environment@D@@YAXQEAPEAD@Z 000000018000e854 f   libucrt:environment_initialization.obj
 0001:0000d854       ??$free_environment@_W@@YAXQEAPEA_W@Z 000000018000e854 f   libucrt:environment_initialization.obj
 0001:0000d898       ??$uninitialize_environment_internal@D@@YAXAEAPEAPEAD@Z 000000018000e898 f   libucrt:environment_initialization.obj
 0001:0000d8b4       ??$uninitialize_environment_internal@_W@@YAXAEAPEAPEA_W@Z 000000018000e8b4 f   libucrt:environment_initialization.obj
 0001:0000d910       ??$?RV<lambda_7777bce6b2f8c936911f934f8298dc43>@@AEAV<lambda_f03950bc5685219e0bcd2087efbe011e>@@V<lambda_3883c3dff614d5e0c5f61bb1ac94921c>@@@?$__crt_seh_guarded_call@H@@QEAAH$$QEAV<lambda_7777bce6b2f8c936911f934f8298dc43>@@AEAV<lambda_f03950bc5685219e0bcd2087efbe011e>@@$$QEAV<lambda_3883c3dff614d5e0c5f61bb1ac94921c>@@@Z 000000018000e910 f   libucrt:onexit.obj
 0001:0000d94c       ??R<lambda_f03950bc5685219e0bcd2087efbe011e>@@QEBAHXZ 000000018000e94c f   libucrt:onexit.obj
 0001:0000dac8       initialize_global_variables 000000018000eac8 f   libucrt:initialization.obj
 0001:0000dadc       initialize_c               000000018000eadc f   libucrt:initialization.obj
 0001:0000db00       initialize_global_state_isolation 000000018000eb00 f   libucrt:initialization.obj
 0001:0000db00       uninitialize_c             000000018000eb00 f   libucrt:initialization.obj
 0001:0000db00       report_memory_leaks        000000018000eb00 f   libucrt:initialization.obj
 0001:0000db00       uninitialize_global_state_isolation 000000018000eb00 f   libucrt:initialization.obj
 0001:0000db00       initialize_environment     000000018000eb00 f   libucrt:initialization.obj
 0001:0000db04       uninitialize_environment   000000018000eb04 f   libucrt:initialization.obj
 0001:0000db14       initialize_pointers        000000018000eb14 f   libucrt:initialization.obj
 0001:0000db54       uninitialize_vcruntime     000000018000eb54 f   libucrt:initialization.obj
 0001:0000db5c       uninitialize_allocated_memory 000000018000eb5c f   libucrt:initialization.obj
 0001:0000db9c       uninitialize_allocated_io_buffers 000000018000eb9c f   libucrt:initialization.obj
 0001:0000dd60       $$000000                   000000018000ed60     libucrt:strncmp.obj
 0001:0000df5c       ??$?RV<lambda_0ae27a3a962d80f24befdcbee591983d>@@AEAV<lambda_8d0ee55de4b1038c4002e0adecdf1839>@@V<lambda_dc504788e8f1664fe9b84e20bfb512f2>@@@?$__crt_seh_guarded_call@X@@QEAAX$$QEAV<lambda_0ae27a3a962d80f24befdcbee591983d>@@AEAV<lambda_8d0ee55de4b1038c4002e0adecdf1839>@@$$QEAV<lambda_dc504788e8f1664fe9b84e20bfb512f2>@@@Z 000000018000ef5c f   libucrt:per_thread_data.obj
 0001:0000df9c       ??$?RV<lambda_2d41944a1d46af3157314b8a01080d33>@@AEAV<lambda_8f455de75cd7d7f24b4096f044d8b9e6>@@V<lambda_aa500f224e6afead328df44964fe2772>@@@?$__crt_seh_guarded_call@X@@QEAAX$$QEAV<lambda_2d41944a1d46af3157314b8a01080d33>@@AEAV<lambda_8f455de75cd7d7f24b4096f044d8b9e6>@@$$QEAV<lambda_aa500f224e6afead328df44964fe2772>@@@Z 000000018000ef9c f   libucrt:per_thread_data.obj
 0001:0000dfdc       ??$?RV<lambda_aa87e3671a710a21b5dc78c0bdf72e11>@@AEAV<lambda_92619d2358a28f41a33ba319515a20b9>@@V<lambda_6992ecaafeb10aed2b74cb1fae11a551>@@@?$__crt_seh_guarded_call@X@@QEAAX$$QEAV<lambda_aa87e3671a710a21b5dc78c0bdf72e11>@@AEAV<lambda_92619d2358a28f41a33ba319515a20b9>@@$$QEAV<lambda_6992ecaafeb10aed2b74cb1fae11a551>@@@Z 000000018000efdc f   libucrt:per_thread_data.obj
 0001:0000e024       ??$?RV<lambda_f2e299630e499de9f9a165e60fcd3db5>@@AEAV<lambda_2ae9d31cdba2644fcbeaf08da7c24588>@@V<lambda_40d01ff24d0e7b3814fdbdcee8eab3c7>@@@?$__crt_seh_guarded_call@X@@QEAAX$$QEAV<lambda_f2e299630e499de9f9a165e60fcd3db5>@@AEAV<lambda_2ae9d31cdba2644fcbeaf08da7c24588>@@$$QEAV<lambda_40d01ff24d0e7b3814fdbdcee8eab3c7>@@@Z 000000018000f024 f   libucrt:per_thread_data.obj
 0001:0000e084       ?construct_ptd_array@@YAXQEAU__acrt_ptd@@@Z 000000018000f084 f   libucrt:per_thread_data.obj
 0001:0000e154       ?destroy_fls@@YAXPEAX@Z    000000018000f154 f   libucrt:per_thread_data.obj
 0001:0000e174       ?destroy_ptd_array@@YAXQEAU__acrt_ptd@@@Z 000000018000f174 f   libucrt:per_thread_data.obj
 0001:0000e26c       ?replace_current_thread_locale_nolock@@YAXQEAU__acrt_ptd@@QEAU__crt_locale_data@@@Z 000000018000f26c f   libucrt:per_thread_data.obj
 0001:0000e628       ??$?RV<lambda_410d79af7f07d98d83a3f525b3859a53>@@AEAV<lambda_3e16ef9562a7dcce91392c22ab16ea36>@@V<lambda_38119f0e861e05405d8a144b9b982f0a>@@@?$__crt_seh_guarded_call@X@@QEAAX$$QEAV<lambda_410d79af7f07d98d83a3f525b3859a53>@@AEAV<lambda_3e16ef9562a7dcce91392c22ab16ea36>@@$$QEAV<lambda_38119f0e861e05405d8a144b9b982f0a>@@@Z 000000018000f628 f   libucrt:wsetlocale.obj
 0001:0000e768       ?internal_isupper_l@@YA_NHQEAU__crt_locale_pointers@@@Z 000000018000f768 f   libucrt:tolower_toupper.obj
 0001:0000f034       ?fp_format_a@@YAHQEBNPEAD_KQEAD2H_NIQEAU__crt_locale_pointers@@@Z 0000000180010034 f   libucrt:cvt.obj
 0001:0000f3a4       ?fp_format_e@@YAHQEBNQEAD_K12H_NIQEAU__crt_locale_pointers@@@Z 00000001800103a4 f   libucrt:cvt.obj
 0001:0000f480       ?fp_format_e_internal@@YAHQEAD_KH_NIQEAU_strflt@@2QEAU__crt_locale_pointers@@@Z 0000000180010480 f   libucrt:cvt.obj
 0001:0000f654       ?fp_format_f_internal@@YAHQEAD_KHQEAU_strflt@@_NQEAU__crt_locale_pointers@@@Z 0000000180010654 f   libucrt:cvt.obj
 0001:0000f798       ?fp_format_g@@YAHQEBNQEAD_K12H_NIQEAU__crt_locale_pointers@@@Z 0000000180010798 f   libucrt:cvt.obj
 0001:0000f8cc       ?fp_format_nan_or_infinity@@YAHW4__acrt_fp_class@@_NPEAD_K1@Z 00000001800108cc f   libucrt:cvt.obj
 0001:0000fe64       ?initialize_inherited_file_handles_nolock@@YAXXZ 0000000180010e64 f   libucrt:ioinit.obj
 0001:0000ff54       ?initialize_stdio_handles_nolock@@YAXXZ 0000000180010f54 f   libucrt:ioinit.obj
 0001:0001032c       ?<lambda_invoker_cdecl>@<lambda_c2303d2482d7c3675ea2e24c4cfb6115>@@CAHPEBX0@Z 000000018001132c f   libucrt:argv_wildcards.obj
 0001:00010644       ??$common_expand_argv_wildcards@D@@YAHQEAPEADQEAPEAPEAD@Z 0000000180011644 f   libucrt:argv_wildcards.obj
 0001:00010850       ??$copy_and_add_argument_to_buffer@D@@YAHQEBD0_KAEAV?$argument_list@D@?A0x5f5c8891@@@Z 0000000180011850 f   libucrt:argv_wildcards.obj
 0001:000109d8       ??$expand_argument_wildcards@D@@YAHQEAD0AEAV?$argument_list@D@?A0x5f5c8891@@@Z 00000001800119d8 f   libucrt:argv_wildcards.obj
 0001:00010f24       ??$?RV<lambda_efdfa57d1f175319df784efa44bb7b81>@@AEAV<lambda_5f0a4c1567f8adc6734073e5d1e1b35c>@@V<lambda_2e8a7d3640ea6ccb4c2413664c2db6fd>@@@?$__crt_seh_guarded_call@X@@QEAAX$$QEAV<lambda_efdfa57d1f175319df784efa44bb7b81>@@AEAV<lambda_5f0a4c1567f8adc6734073e5d1e1b35c>@@$$QEAV<lambda_2e8a7d3640ea6ccb4c2413664c2db6fd>@@@Z 0000000180011f24 f   libucrt:mbctype.obj
 0001:000110e0       ?getSystemCP@@YAHH@Z       00000001800120e0 f   libucrt:mbctype.obj
 0001:00011160       ?setSBCS@@YAXPEAU__crt_multibyte_data@@@Z 0000000180012160 f   libucrt:mbctype.obj
 0001:000111f0       ?setSBUpLow@@YAXPEAU__crt_multibyte_data@@@Z 00000001800121f0 f   libucrt:mbctype.obj
 0001:000113d4       ?setmbcp_internal@@YAHH_NQEAU__acrt_ptd@@QEAPEAU__crt_multibyte_data@@@Z 00000001800123d4 f   libucrt:mbctype.obj
 0001:00011598       ?update_thread_multibyte_data_internal@@YAPEAU__crt_multibyte_data@@QEAU__acrt_ptd@@QEAPEAU1@@Z 0000000180012598 f   libucrt:mbctype.obj
 0001:00011988       ?x_ismbbtype_l@@YAHPEAU__crt_locale_pointers@@IHH@Z 0000000180012988 f   libucrt:ismbbyte.obj
 0001:00011ccc       ?try_get_function@@YAPEAXW4function_id@?A0x391cf84c@@QEBDQEBW4module_id@2@2@Z 0000000180012ccc f   libucrt:winapi_thunks.obj
 0001:00012348       ??$?RV<lambda_450d765d439847d4c735a33c368b5fc0>@@AEAV<lambda_44731a7d0e6d81c3e6aa82d741081786>@@V<lambda_601a2a7da3b7a96e9554ac7215c4b07c>@@@?$__crt_seh_guarded_call@P6AXH@Z@@QEAAP6AXH@Z$$QEAV<lambda_450d765d439847d4c735a33c368b5fc0>@@AEAV<lambda_44731a7d0e6d81c3e6aa82d741081786>@@$$QEAV<lambda_601a2a7da3b7a96e9554ac7215c4b07c>@@@Z 0000000180013348 f   libucrt:signal.obj
 0001:000126a4       ??$?RV<lambda_842d9ff0dc9ef11c61343bbaebe7f885>@@AEAV<lambda_c5860995281e5c4ce005b3de8f5874ee>@@V<lambda_d90129c13df834fdcbf8d2b88dafcf2d>@@@?$__crt_seh_guarded_call@X@@QEAAX$$QEAV<lambda_842d9ff0dc9ef11c61343bbaebe7f885>@@AEAV<lambda_c5860995281e5c4ce005b3de8f5874ee>@@$$QEAV<lambda_d90129c13df834fdcbf8d2b88dafcf2d>@@@Z 00000001800136a4 f   libucrt:fflush.obj
 0001:00012740       ??$?RV<lambda_886d6c58226a84441f68b9f2b8217b83>@@AEAV<lambda_ab61a845afdef5b7c387490eaf3616ee>@@V<lambda_f7f22ab5edc0698d5f6905b0d3f44752>@@@?$__crt_seh_guarded_call@X@@QEAAX$$QEAV<lambda_886d6c58226a84441f68b9f2b8217b83>@@AEAV<lambda_ab61a845afdef5b7c387490eaf3616ee>@@$$QEAV<lambda_f7f22ab5edc0698d5f6905b0d3f44752>@@@Z 0000000180013740 f   libucrt:fflush.obj
 0001:00012820       ?common_flush_all@@YAH_N@Z 0000000180013820 f   libucrt:fflush.obj
 0001:000130b0       ?free_crt_array_internal@@YAXQEAPEBX_K@Z 00000001800140b0 f   libucrt:inittime.obj
 0001:00013210       ?__acrt_LCMapStringA_stat@@YAHPEAU__crt_locale_pointers@@PEB_WKPEBDHPEADHHH@Z 0000000180014210 f   libucrt:lcmapstringa.obj
 0001:00014f80       memcpy_s                   0000000180015f80 f   libucrt:cfout.obj
 0001:00015840       fallbackMethod             0000000180016840 f   libucrt:strpbrk.obj
 0001:00015c04       $LN78                      0000000180016c04     libucrt:strpbrk.obj
 0001:00015c40       $LN77                      0000000180016c40     libucrt:strpbrk.obj
 0001:00015c80       $LN76                      0000000180016c80     libucrt:strpbrk.obj
 0001:00015d5c       ?initialize_multibyte@@YAHXZ 0000000180016d5c f   libucrt:multibyte_initializer.obj
 0001:00015e2c       ?GetTableIndexFromLocaleName@@YAHPEB_W@Z 0000000180016e2c f   libucrt:lcidtoname_downlevel.obj
 0001:00015f48       ??$?RV<lambda_a37b2b86f63e897a80ea819b0eb08c01>@@AEAV<lambda_38ce7e780aa69e748d6df282ebc68efe>@@V<lambda_99fb1378e971ab6e7edea83e3a7a83a2>@@@?$__crt_seh_guarded_call@H@@QEAAH$$QEAV<lambda_a37b2b86f63e897a80ea819b0eb08c01>@@AEAV<lambda_38ce7e780aa69e748d6df282ebc68efe>@@$$QEAV<lambda_99fb1378e971ab6e7edea83e3a7a83a2>@@@Z 0000000180016f48 f   libucrt:commit.obj
 0001:00016068       ?write_double_translated_ansi_nolock@@YA?AUwrite_result@?A0x17268360@@HQEBDI@Z 0000000180017068 f   libucrt:write.obj
 0001:00016544       ?write_text_ansi_nolock@@YA?AUwrite_result@?A0x17268360@@HQEBDI@Z 0000000180017544 f   libucrt:write.obj
 0001:00016648       ?write_text_utf16le_nolock@@YA?AUwrite_result@?A0x17268360@@HQEBDI@Z 0000000180017648 f   libucrt:write.obj
 0001:00016764       ?write_text_utf8_nolock@@YA?AUwrite_result@?A0x17268360@@HQEBDI@Z 0000000180017764 f   libucrt:write.obj
 0001:00017020       $$000000                   0000000180018020     libucrt:log10.obj
 0001:000175cc       ??$common_lseek_nolock@_J@@YA_JH_JH@Z 00000001800185cc f   libucrt:lseek.obj
 0001:00017b20       _call_matherr              0000000180018b20 f   libucrt:libm_error.obj
 0001:00017b88       _exception_enabled         0000000180018b88 f   libucrt:libm_error.obj
 0001:00017e20       _log_special_common        0000000180018e20 f   libucrt:log_special.obj
 0001:00017eb8       ??$?RV<lambda_751a882b2c74d4b022dec766aa51a29a>@@AEAV<lambda_628dfdc04ba53c8bfc02c9951375f3f5>@@V<lambda_f6c7be5f7998530c34de24c7437d6b54>@@@?$__crt_seh_guarded_call@H@@QEAAH$$QEAV<lambda_751a882b2c74d4b022dec766aa51a29a>@@AEAV<lambda_628dfdc04ba53c8bfc02c9951375f3f5>@@$$QEAV<lambda_f6c7be5f7998530c34de24c7437d6b54>@@@Z 0000000180018eb8 f   libucrt:close.obj
 0001:000181e0       $$000000                   00000001800191e0     libucrt:fpsr.obj
 0001:00018e30       $$000000                   0000000180019e30     LIBCMT:chkstk.obj
 0001:00018ea0       $$000000                   0000000180019ea0     libvcruntime:memcmp.obj
 0001:00019150       $$000000                   000000018001a150     LIBCMT:guard_dispatch.obj
 0001:00019170       ?dtor$1@?0???BString@Napi@@QEBA?AV?$basic_string@DU?$char_traits@D@std@@V?$allocator@D@2@@std@@XZ@4HA 000000018001a170 f   binding.obj
 0001:000191a0       ?dtor$1@?0???0ObjectReference@Napi@@IEAA@AEBV01@@Z@4HA 000000018001a1a0 f   binding.obj
 0001:000191a0       ?dtor$5@?0???0TypeError@Napi@@QEAA@AEBV01@@Z@4HA 000000018001a1a0 f   binding.obj
 0001:000191a0       ?dtor$4@?0???0Error@Napi@@QEAA@AEBV01@@Z@4HA 000000018001a1a0 f   binding.obj
 0001:000191b0       ?dtor$1@?0??Message@Error@Napi@@QEBAAEBV?$basic_string@DU?$char_traits@D@std@@V?$allocator@D@2@@std@@XZ@4HA 000000018001a1b0 f   binding.obj
 0001:000191bc       ?catch$6@?0??Message@Error@Napi@@QEBAAEBV?$basic_string@DU?$char_traits@D@std@@V?$allocator@D@2@@std@@XZ@4HA 000000018001a1bc f   binding.obj
 0001:000191c9       __catch$?Message@Error@Napi@@QEBAAEBV?$basic_string@DU?$char_traits@D@std@@V?$allocator@D@2@@std@@XZ$0 000000018001a1c9 f   binding.obj
 0001:000191e0       ?dtor$0@?0??ThrowAsJavaScriptException@Error@Napi@@QEBAXXZ@4HA 000000018001a1e0 f   binding.obj
 0001:000191e0       ?dtor$0@?0???0?$Reference@VObject@Napi@@@Napi@@IEAA@AEBV01@@Z@4HA 000000018001a1e0 f   binding.obj
 0001:000191f0       ?dtor$0@?0??WriteObject@?A0x89cbbd6c@@YAXAEBVCallbackInfo@Napi@@@Z@4HA 000000018001a1f0 f   binding.obj
 0001:00019200       ?dtor$0@?0??WriteInt64@?A0x89cbbd6c@@YAXAEBVCallbackInfo@Napi@@@Z@4HA 000000018001a200 f   binding.obj
 0001:00019200       ?dtor$0@?0??WriteUInt64@?A0x89cbbd6c@@YAXAEBVCallbackInfo@Napi@@@Z@4HA 000000018001a200 f   binding.obj
 0001:00019210       ?dtor$0@?0??Init@@YA?AVObject@Napi@@VEnv@2@V12@@Z@4HA 000000018001a210 f   binding.obj
 0001:0001921c       ?dtor$1@?0??Init@@YA?AVObject@Napi@@VEnv@2@V12@@Z@4HA 000000018001a21c f   binding.obj
 0001:00019228       ?dtor$2@?0??Init@@YA?AVObject@Napi@@VEnv@2@V12@@Z@4HA 000000018001a228 f   binding.obj
 0001:00019234       ?dtor$3@?0??Init@@YA?AVObject@Napi@@VEnv@2@V12@@Z@4HA 000000018001a234 f   binding.obj
 0001:00019240       ?dtor$4@?0??Init@@YA?AVObject@Napi@@VEnv@2@V12@@Z@4HA 000000018001a240 f   binding.obj
 0001:0001924c       ?dtor$5@?0??Init@@YA?AVObject@Napi@@VEnv@2@V12@@Z@4HA 000000018001a24c f   binding.obj
 0001:00019258       ?dtor$6@?0??Init@@YA?AVObject@Napi@@VEnv@2@V12@@Z@4HA 000000018001a258 f   binding.obj
 0001:00019264       ?dtor$7@?0??Init@@YA?AVObject@Napi@@VEnv@2@V12@@Z@4HA 000000018001a264 f   binding.obj
 0001:00019270       ?dtor$8@?0??Init@@YA?AVObject@Napi@@VEnv@2@V12@@Z@4HA 000000018001a270 f   binding.obj
 0001:0001927c       ?dtor$9@?0??Init@@YA?AVObject@Napi@@VEnv@2@V12@@Z@4HA 000000018001a27c f   binding.obj
 0001:00019288       ?dtor$10@?0??Init@@YA?AVObject@Napi@@VEnv@2@V12@@Z@4HA 000000018001a288 f   binding.obj
 0001:00019294       ?dtor$11@?0??Init@@YA?AVObject@Napi@@VEnv@2@V12@@Z@4HA 000000018001a294 f   binding.obj
 0001:000192a0       ?dtor$12@?0??Init@@YA?AVObject@Napi@@VEnv@2@V12@@Z@4HA 000000018001a2a0 f   binding.obj
 0001:000192ac       ?dtor$13@?0??Init@@YA?AVObject@Napi@@VEnv@2@V12@@Z@4HA 000000018001a2ac f   binding.obj
 0001:000192b8       ?dtor$14@?0??Init@@YA?AVObject@Napi@@VEnv@2@V12@@Z@4HA 000000018001a2b8 f   binding.obj
 0001:000192c4       ?dtor$15@?0??Init@@YA?AVObject@Napi@@VEnv@2@V12@@Z@4HA 000000018001a2c4 f   binding.obj
 0001:000192d0       ?dtor$16@?0??Init@@YA?AVObject@Napi@@VEnv@2@V12@@Z@4HA 000000018001a2d0 f   binding.obj
 0001:000192dc       ?dtor$17@?0??Init@@YA?AVObject@Napi@@VEnv@2@V12@@Z@4HA 000000018001a2dc f   binding.obj
 0001:000192e8       ?dtor$18@?0??Init@@YA?AVObject@Napi@@VEnv@2@V12@@Z@4HA 000000018001a2e8 f   binding.obj
 0001:000192f4       ?dtor$19@?0??Init@@YA?AVObject@Napi@@VEnv@2@V12@@Z@4HA 000000018001a2f4 f   binding.obj
 0001:00019300       ?dtor$20@?0??Init@@YA?AVObject@Napi@@VEnv@2@V12@@Z@4HA 000000018001a300 f   binding.obj
 0001:0001930c       ?dtor$21@?0??Init@@YA?AVObject@Napi@@VEnv@2@V12@@Z@4HA 000000018001a30c f   binding.obj
 0001:00019318       ?dtor$22@?0??Init@@YA?AVObject@Napi@@VEnv@2@V12@@Z@4HA 000000018001a318 f   binding.obj
 0001:00019324       ?dtor$23@?0??Init@@YA?AVObject@Napi@@VEnv@2@V12@@Z@4HA 000000018001a324 f   binding.obj
 0001:00019330       ?dtor$24@?0??Init@@YA?AVObject@Napi@@VEnv@2@V12@@Z@4HA 000000018001a330 f   binding.obj
 0001:0001933c       ?dtor$25@?0??Init@@YA?AVObject@Napi@@VEnv@2@V12@@Z@4HA 000000018001a33c f   binding.obj
 0001:00019348       ?dtor$26@?0??Init@@YA?AVObject@Napi@@VEnv@2@V12@@Z@4HA 000000018001a348 f   binding.obj
 0001:00019354       ?dtor$27@?0??Init@@YA?AVObject@Napi@@VEnv@2@V12@@Z@4HA 000000018001a354 f   binding.obj
 0001:00019360       ?dtor$28@?0??Init@@YA?AVObject@Napi@@VEnv@2@V12@@Z@4HA 000000018001a360 f   binding.obj
 0001:0001936c       ?dtor$29@?0??Init@@YA?AVObject@Napi@@VEnv@2@V12@@Z@4HA 000000018001a36c f   binding.obj
 0001:00019378       ?dtor$30@?0??Init@@YA?AVObject@Napi@@VEnv@2@V12@@Z@4HA 000000018001a378 f   binding.obj
 0001:00019384       ?dtor$31@?0??Init@@YA?AVObject@Napi@@VEnv@2@V12@@Z@4HA 000000018001a384 f   binding.obj
 0001:00019390       ?dtor$32@?0??Init@@YA?AVObject@Napi@@VEnv@2@V12@@Z@4HA 000000018001a390 f   binding.obj
 0001:0001939c       ?dtor$33@?0??Init@@YA?AVObject@Napi@@VEnv@2@V12@@Z@4HA 000000018001a39c f   binding.obj
 0001:000193a8       ?dtor$34@?0??Init@@YA?AVObject@Napi@@VEnv@2@V12@@Z@4HA 000000018001a3a8 f   binding.obj
 0001:000193b4       ?dtor$35@?0??Init@@YA?AVObject@Napi@@VEnv@2@V12@@Z@4HA 000000018001a3b4 f   binding.obj
 0001:000193c0       ?dtor$36@?0??Init@@YA?AVObject@Napi@@VEnv@2@V12@@Z@4HA 000000018001a3c0 f   binding.obj
 0001:000193cc       ?dtor$37@?0??Init@@YA?AVObject@Napi@@VEnv@2@V12@@Z@4HA 000000018001a3cc f   binding.obj
 0001:000193d8       ?dtor$38@?0??Init@@YA?AVObject@Napi@@VEnv@2@V12@@Z@4HA 000000018001a3d8 f   binding.obj
 0001:000193e4       ?dtor$39@?0??Init@@YA?AVObject@Napi@@VEnv@2@V12@@Z@4HA 000000018001a3e4 f   binding.obj
 0001:000193f0       ?dtor$40@?0??Init@@YA?AVObject@Napi@@VEnv@2@V12@@Z@4HA 000000018001a3f0 f   binding.obj
 0001:000193fc       ?dtor$41@?0??Init@@YA?AVObject@Napi@@VEnv@2@V12@@Z@4HA 000000018001a3fc f   binding.obj
 0001:00019408       ?dtor$42@?0??Init@@YA?AVObject@Napi@@VEnv@2@V12@@Z@4HA 000000018001a408 f   binding.obj
 0001:00019414       ?dtor$43@?0??Init@@YA?AVObject@Napi@@VEnv@2@V12@@Z@4HA 000000018001a414 f   binding.obj
 0001:00019420       ?dtor$44@?0??Init@@YA?AVObject@Napi@@VEnv@2@V12@@Z@4HA 000000018001a420 f   binding.obj
 0001:0001942c       ?dtor$45@?0??Init@@YA?AVObject@Napi@@VEnv@2@V12@@Z@4HA 000000018001a42c f   binding.obj
 0001:00019438       ?dtor$46@?0??Init@@YA?AVObject@Napi@@VEnv@2@V12@@Z@4HA 000000018001a438 f   binding.obj
 0001:00019444       ?dtor$47@?0??Init@@YA?AVObject@Napi@@VEnv@2@V12@@Z@4HA 000000018001a444 f   binding.obj
 0001:00019450       ?dtor$48@?0??Init@@YA?AVObject@Napi@@VEnv@2@V12@@Z@4HA 000000018001a450 f   binding.obj
 0001:0001945c       ?dtor$49@?0??Init@@YA?AVObject@Napi@@VEnv@2@V12@@Z@4HA 000000018001a45c f   binding.obj
 0001:00019468       ?dtor$50@?0??Init@@YA?AVObject@Napi@@VEnv@2@V12@@Z@4HA 000000018001a468 f   binding.obj
 0001:00019474       ?dtor$51@?0??Init@@YA?AVObject@Napi@@VEnv@2@V12@@Z@4HA 000000018001a474 f   binding.obj
 0001:00019480       ?dtor$52@?0??Init@@YA?AVObject@Napi@@VEnv@2@V12@@Z@4HA 000000018001a480 f   binding.obj
 0001:0001948c       ?dtor$53@?0??Init@@YA?AVObject@Napi@@VEnv@2@V12@@Z@4HA 000000018001a48c f   binding.obj
 0001:00019498       ?dtor$54@?0??Init@@YA?AVObject@Napi@@VEnv@2@V12@@Z@4HA 000000018001a498 f   binding.obj
 0001:000194a4       ?dtor$55@?0??Init@@YA?AVObject@Napi@@VEnv@2@V12@@Z@4HA 000000018001a4a4 f   binding.obj
 0001:000194b0       ?dtor$56@?0??Init@@YA?AVObject@Napi@@VEnv@2@V12@@Z@4HA 000000018001a4b0 f   binding.obj
 0001:000194bc       ?dtor$57@?0??Init@@YA?AVObject@Napi@@VEnv@2@V12@@Z@4HA 000000018001a4bc f   binding.obj
 0001:000194c8       ?dtor$58@?0??Init@@YA?AVObject@Napi@@VEnv@2@V12@@Z@4HA 000000018001a4c8 f   binding.obj
 0001:000194d4       ?dtor$59@?0??Init@@YA?AVObject@Napi@@VEnv@2@V12@@Z@4HA 000000018001a4d4 f   binding.obj
 0001:000194e0       ?dtor$60@?0??Init@@YA?AVObject@Napi@@VEnv@2@V12@@Z@4HA 000000018001a4e0 f   binding.obj
 0001:000194ec       ?dtor$61@?0??Init@@YA?AVObject@Napi@@VEnv@2@V12@@Z@4HA 000000018001a4ec f   binding.obj
 0001:000194f8       ?dtor$62@?0??Init@@YA?AVObject@Napi@@VEnv@2@V12@@Z@4HA 000000018001a4f8 f   binding.obj
 0001:00019504       ?dtor$63@?0??Init@@YA?AVObject@Napi@@VEnv@2@V12@@Z@4HA 000000018001a504 f   binding.obj
 0001:00019510       ?dtor$64@?0??Init@@YA?AVObject@Napi@@VEnv@2@V12@@Z@4HA 000000018001a510 f   binding.obj
 0001:0001951c       ?dtor$65@?0??Init@@YA?AVObject@Napi@@VEnv@2@V12@@Z@4HA 000000018001a51c f   binding.obj
 0001:00019528       ?dtor$66@?0??Init@@YA?AVObject@Napi@@VEnv@2@V12@@Z@4HA 000000018001a528 f   binding.obj
 0001:00019540       ?dtor$0@?0???0?$PropertyLValue@V?$basic_string@DU?$char_traits@D@std@@V?$allocator@D@2@@std@@@Object@Napi@@AEAA@V12@V?$basic_string@DU?$char_traits@D@std@@V?$allocator@D@2@@std@@@Z@4HA 000000018001a540 f   binding.obj
 0001:00019550       ?catch$0@?0???$WrapCallback@V<lambda_8c7377a71108815b2eee34f099f4cb99>@@@details@Napi@@YAPEAUnapi_value__@@V<lambda_8c7377a71108815b2eee34f099f4cb99>@@@Z@4HA 000000018001a550 f   binding.obj
 0001:0001955d       __catch$??$WrapCallback@V<lambda_8c7377a71108815b2eee34f099f4cb99>@@@details@Napi@@YAPEAUnapi_value__@@V<lambda_8c7377a71108815b2eee34f099f4cb99>@@@Z$0 000000018001a55d f   binding.obj
 0001:00019580       ?dtor$0@?0???$WrapCallback@V<lambda_03ec0e3e2a4187754bc7c97d0c48b30a>@@@details@Napi@@YAPEAUnapi_value__@@V<lambda_03ec0e3e2a4187754bc7c97d0c48b30a>@@@Z@4HA 000000018001a580 f   binding.obj
 0001:0001958c       ?catch$1@?0???$WrapCallback@V<lambda_03ec0e3e2a4187754bc7c97d0c48b30a>@@@details@Napi@@YAPEAUnapi_value__@@V<lambda_03ec0e3e2a4187754bc7c97d0c48b30a>@@@Z@4HA 000000018001a58c f   binding.obj
 0001:00019599       __catch$??$WrapCallback@V<lambda_03ec0e3e2a4187754bc7c97d0c48b30a>@@@details@Napi@@YAPEAUnapi_value__@@V<lambda_03ec0e3e2a4187754bc7c97d0c48b30a>@@@Z$0 000000018001a599 f   binding.obj
 0001:000195c0       ?dtor$0@?0???$WrapCallback@V<lambda_4b130013be4a466940e6fe08d32cda83>@@@details@Napi@@YAPEAUnapi_value__@@V<lambda_4b130013be4a466940e6fe08d32cda83>@@@Z@4HA 000000018001a5c0 f   binding.obj
 0001:000195cc       ?catch$1@?0???$WrapCallback@V<lambda_4b130013be4a466940e6fe08d32cda83>@@@details@Napi@@YAPEAUnapi_value__@@V<lambda_4b130013be4a466940e6fe08d32cda83>@@@Z@4HA 000000018001a5cc f   binding.obj
 0001:000195d9       __catch$??$WrapCallback@V<lambda_4b130013be4a466940e6fe08d32cda83>@@@details@Napi@@YAPEAUnapi_value__@@V<lambda_4b130013be4a466940e6fe08d32cda83>@@@Z$0 000000018001a5d9 f   binding.obj
 0001:000195f1       ?fin$0@?0??dllmain_crt_process_attach@@YAHQEAUHINSTANCE__@@QEAX@Z@4HA 000000018001a5f1 f   LIBCMT:dll_dllmain.obj
 0001:00019608       ?fin$0@?0??dllmain_crt_process_detach@@YAH_N@Z@4HA 000000018001a608 f   LIBCMT:dll_dllmain.obj
 0001:00019624       ?filt$0@?0??dllmain_dispatch@@YAHQEAUHINSTANCE__@@KQEAX@Z@4HA 000000018001a624 f   LIBCMT:dll_dllmain.obj
 0001:0001965a       __scrt_is_nonwritable_in_current_image$filt$0 000000018001a65a f   LIBCMT:utility.obj
 0001:00019672       ?filt$0@?0???$_CallSETranslator@V__FrameHandler3@@@@YAHPEAUEHExceptionRecord@@PEA_KPEAU_CONTEXT@@PEAU_xDISPATCHER_CONTEXT@@PEBU_s_FuncInfo@@K1@Z@4HA 000000018001a672 f   libvcruntime:risctrnsctrl.obj
 0001:00019703       __DestructExceptionObject$filt$0 000000018001a703 f   libvcruntime:ehhelpers.obj
 0001:0001971b       ?filt$0@?0??CxxCallCatchBlock@__FrameHandler3@@SAPEAXPEAU_EXCEPTION_RECORD@@@Z@4HA 000000018001a71b f   libvcruntime:frame.obj
 0001:00019740       ?fin$1@?0??CxxCallCatchBlock@__FrameHandler3@@SAPEAXPEAU_EXCEPTION_RECORD@@@Z@4HA 000000018001a740 f   libvcruntime:frame.obj
 0001:000197b8       ?filt$0@?0??FrameUnwindToState@__FrameHandler3@@SAXPEA_KPEAU_xDISPATCHER_CONTEXT@@PEBU_s_FuncInfo@@H@Z@4HA 000000018001a7b8 f   libvcruntime:frame.obj
 0001:000197ce       ?fin$1@?0??FrameUnwindToState@__FrameHandler3@@SAXPEA_KPEAU_xDISPATCHER_CONTEXT@@PEBU_s_FuncInfo@@H@Z@4HA 000000018001a7ce f   libvcruntime:frame.obj
 0001:000197f1       _query_new_handler$fin$0   000000018001a7f1 f   libucrt:new_handler.obj
 0001:00019807       ?fin$0@?0???$?RV<lambda_0ae27a3a962d80f24befdcbee591983d>@@AEAV<lambda_8d0ee55de4b1038c4002e0adecdf1839>@@V<lambda_dc504788e8f1664fe9b84e20bfb512f2>@@@?$__crt_seh_guarded_call@X@@QEAAX$$QEAV<lambda_0ae27a3a962d80f24befdcbee591983d>@@AEAV<lambda_8d0ee55de4b1038c4002e0adecdf1839>@@$$QEAV<lambda_dc504788e8f1664fe9b84e20bfb512f2>@@@Z@4HA 000000018001a807 f   libucrt:per_thread_data.obj
 0001:00019807       ?fin$0@?0???$?RV<lambda_f2e299630e499de9f9a165e60fcd3db5>@@AEAV<lambda_2ae9d31cdba2644fcbeaf08da7c24588>@@V<lambda_40d01ff24d0e7b3814fdbdcee8eab3c7>@@@?$__crt_seh_guarded_call@X@@QEAAX$$QEAV<lambda_f2e299630e499de9f9a165e60fcd3db5>@@AEAV<lambda_2ae9d31cdba2644fcbeaf08da7c24588>@@$$QEAV<lambda_40d01ff24d0e7b3814fdbdcee8eab3c7>@@@Z@4HA 000000018001a807 f   libucrt:per_thread_data.obj
 0001:00019807       ?fin$0@?0???$?RV<lambda_d80eeec6fff315bfe5c115232f3240e3>@@AEAV<lambda_6e4b09c48022b2350581041d5f6b0c4c>@@V<lambda_2358e3775559c9db80273638284d5e45>@@@?$__crt_seh_guarded_call@X@@QEAAX$$QEAV<lambda_d80eeec6fff315bfe5c115232f3240e3>@@AEAV<lambda_6e4b09c48022b2350581041d5f6b0c4c>@@$$QEAV<lambda_2358e3775559c9db80273638284d5e45>@@@Z@4HA 000000018001a807 f   libucrt:exit.obj
 0001:00019807       ?fin$0@?0???$?RV<lambda_efdfa57d1f175319df784efa44bb7b81>@@AEAV<lambda_5f0a4c1567f8adc6734073e5d1e1b35c>@@V<lambda_2e8a7d3640ea6ccb4c2413664c2db6fd>@@@?$__crt_seh_guarded_call@X@@QEAAX$$QEAV<lambda_efdfa57d1f175319df784efa44bb7b81>@@AEAV<lambda_5f0a4c1567f8adc6734073e5d1e1b35c>@@$$QEAV<lambda_2e8a7d3640ea6ccb4c2413664c2db6fd>@@@Z@4HA 000000018001a807 f   libucrt:mbctype.obj
 0001:00019807       ?fin$0@?0???$?RV<lambda_7777bce6b2f8c936911f934f8298dc43>@@AEAV<lambda_f03950bc5685219e0bcd2087efbe011e>@@V<lambda_3883c3dff614d5e0c5f61bb1ac94921c>@@@?$__crt_seh_guarded_call@H@@QEAAH$$QEAV<lambda_7777bce6b2f8c936911f934f8298dc43>@@AEAV<lambda_f03950bc5685219e0bcd2087efbe011e>@@$$QEAV<lambda_3883c3dff614d5e0c5f61bb1ac94921c>@@@Z@4HA 000000018001a807 f   libucrt:onexit.obj
 0001:00019807       ?fin$0@?0???$?RV<lambda_aa87e3671a710a21b5dc78c0bdf72e11>@@AEAV<lambda_92619d2358a28f41a33ba319515a20b9>@@V<lambda_6992ecaafeb10aed2b74cb1fae11a551>@@@?$__crt_seh_guarded_call@X@@QEAAX$$QEAV<lambda_aa87e3671a710a21b5dc78c0bdf72e11>@@AEAV<lambda_92619d2358a28f41a33ba319515a20b9>@@$$QEAV<lambda_6992ecaafeb10aed2b74cb1fae11a551>@@@Z@4HA 000000018001a807 f   libucrt:per_thread_data.obj
 0001:00019807       ?fin$0@?0???$?RV<lambda_2d41944a1d46af3157314b8a01080d33>@@AEAV<lambda_8f455de75cd7d7f24b4096f044d8b9e6>@@V<lambda_aa500f224e6afead328df44964fe2772>@@@?$__crt_seh_guarded_call@X@@QEAAX$$QEAV<lambda_2d41944a1d46af3157314b8a01080d33>@@AEAV<lambda_8f455de75cd7d7f24b4096f044d8b9e6>@@$$QEAV<lambda_aa500f224e6afead328df44964fe2772>@@@Z@4HA 000000018001a807 f   libucrt:per_thread_data.obj
 0001:00019807       ?fin$0@?0???$?RV<lambda_450d765d439847d4c735a33c368b5fc0>@@AEAV<lambda_44731a7d0e6d81c3e6aa82d741081786>@@V<lambda_601a2a7da3b7a96e9554ac7215c4b07c>@@@?$__crt_seh_guarded_call@P6AXH@Z@@QEAAP6AXH@Z$$QEAV<lambda_450d765d439847d4c735a33c368b5fc0>@@AEAV<lambda_44731a7d0e6d81c3e6aa82d741081786>@@$$QEAV<lambda_601a2a7da3b7a96e9554ac7215c4b07c>@@@Z@4HA 000000018001a807 f   libucrt:signal.obj
 0001:00019821       ?filt$0@?0???R<lambda_6e4b09c48022b2350581041d5f6b0c4c>@@QEBA@XZ@4HA 000000018001a821 f   libucrt:exit.obj
 0001:0001983c       ?fin$0@?0???$?RV<lambda_410d79af7f07d98d83a3f525b3859a53>@@AEAV<lambda_3e16ef9562a7dcce91392c22ab16ea36>@@V<lambda_38119f0e861e05405d8a144b9b982f0a>@@@?$__crt_seh_guarded_call@X@@QEAAX$$QEAV<lambda_410d79af7f07d98d83a3f525b3859a53>@@AEAV<lambda_3e16ef9562a7dcce91392c22ab16ea36>@@$$QEAV<lambda_38119f0e861e05405d8a144b9b982f0a>@@@Z@4HA 000000018001a83c f   libucrt:wsetlocale.obj
 0001:00019856       __acrt_lowio_ensure_fh_exists$fin$0 000000018001a856 f   libucrt:osfinfo.obj
 0001:00019856       __acrt_initialize_lowio$fin$0 000000018001a856 f   libucrt:ioinit.obj
 0001:0001986f       ?fin$0@?0??update_thread_multibyte_data_internal@@YAPEAU__crt_multibyte_data@@QEAU__acrt_ptd@@QEAPEAU1@@Z@4HA 000000018001a86f f   libucrt:mbctype.obj
 0001:00019888       raise$fin$0                000000018001a888 f   libucrt:signal.obj
 0001:000198a9       ?fin$0@?0???$?RV<lambda_842d9ff0dc9ef11c61343bbaebe7f885>@@AEAV<lambda_c5860995281e5c4ce005b3de8f5874ee>@@V<lambda_d90129c13df834fdcbf8d2b88dafcf2d>@@@?$__crt_seh_guarded_call@X@@QEAAX$$QEAV<lambda_842d9ff0dc9ef11c61343bbaebe7f885>@@AEAV<lambda_c5860995281e5c4ce005b3de8f5874ee>@@$$QEAV<lambda_d90129c13df834fdcbf8d2b88dafcf2d>@@@Z@4HA 000000018001a8a9 f   libucrt:fflush.obj
 0001:000198c4       ?fin$0@?0???$?RV<lambda_886d6c58226a84441f68b9f2b8217b83>@@AEAV<lambda_ab61a845afdef5b7c387490eaf3616ee>@@V<lambda_f7f22ab5edc0698d5f6905b0d3f44752>@@@?$__crt_seh_guarded_call@X@@QEAAX$$QEAV<lambda_886d6c58226a84441f68b9f2b8217b83>@@AEAV<lambda_ab61a845afdef5b7c387490eaf3616ee>@@$$QEAV<lambda_f7f22ab5edc0698d5f6905b0d3f44752>@@@Z@4HA 000000018001a8c4 f   libucrt:fflush.obj
 0001:000198e1       __acrt_update_thread_locale_data$fin$0 000000018001a8e1 f   libucrt:locale_refcounting.obj
 0001:000198fa       _fcloseall$fin$0           000000018001a8fa f   libucrt:closeall.obj
 0001:00019913       ?fin$0@?0???$?RV<lambda_a37b2b86f63e897a80ea819b0eb08c01>@@AEAV<lambda_38ce7e780aa69e748d6df282ebc68efe>@@V<lambda_99fb1378e971ab6e7edea83e3a7a83a2>@@@?$__crt_seh_guarded_call@H@@QEAAH$$QEAV<lambda_a37b2b86f63e897a80ea819b0eb08c01>@@AEAV<lambda_38ce7e780aa69e748d6df282ebc68efe>@@$$QEAV<lambda_99fb1378e971ab6e7edea83e3a7a83a2>@@@Z@4HA 000000018001a913 f   libucrt:commit.obj
 0001:00019913       ?fin$0@?0???$?RV<lambda_751a882b2c74d4b022dec766aa51a29a>@@AEAV<lambda_628dfdc04ba53c8bfc02c9951375f3f5>@@V<lambda_f6c7be5f7998530c34de24c7437d6b54>@@@?$__crt_seh_guarded_call@H@@QEAAH$$QEAV<lambda_751a882b2c74d4b022dec766aa51a29a>@@AEAV<lambda_628dfdc04ba53c8bfc02c9951375f3f5>@@$$QEAV<lambda_f6c7be5f7998530c34de24c7437d6b54>@@@Z@4HA 000000018001a913 f   libucrt:close.obj
 0001:0001992d       _write$fin$0               000000018001a92d f   libucrt:write.obj
 0001:00019944       fclose$fin$0               000000018001a944 f   libucrt:fclose.obj
 0001:0001995c       _ctrlfp$filt$0             000000018001a95c f   libucrt:fpctrl.obj
 0001:00019990       _IsNonwritableInCurrentImage$filt$0 000000018001a990 f   LIBCMT:pesect.obj
 0002:00000390       GS_ExceptionPointers       000000018001b390     LIBCMT:gs_report.obj
 0002:000003d0       ?ExceptionTemplate@?1??UnwindNestedFrames@__FrameHandler3@@SAXPEA_KPEAUEHExceptionRecord@@PEAU_CONTEXT@@0PEAXPEBU_s_FuncInfo@@HHPEBU_s_HandlerType@@PEAU_xDISPATCHER_CONTEXT@@E@Z@4U_EXCEPTION_RECORD@@B 000000018001b3d0     libvcruntime:risctrnsctrl.obj
 0002:00000470       ?ExceptionTemplate@?1??_CxxThrowException@@9@4UEHExceptionRecord@@B 000000018001b470     libvcruntime:throw.obj
 0002:000004e0       ?tokenTable@@3QBQEBDB      000000018001b4e0     libvcruntime:undname.obj
 0002:00000560       ?nameTable@@3QBQEBDB       000000018001b560     libvcruntime:undname.obj
 0002:000007f0       ?rttiTable@@3QBQEBDB       000000018001b7f0     libvcruntime:undname.obj
 0002:00000ea8       ?module_names@?A0x14c33c87@@3QBQEB_WB 000000018001bea8     libvcruntime:winapi_downlevel.obj
 0002:00000f78       ?candidate_modules@?1??try_get_FlsAlloc@@YAP6AKP6AXPEAX@Z@ZXZ@4QBW4module_id@?A0x14c33c87@@B 000000018001bf78     libvcruntime:winapi_downlevel.obj
 0002:00000f90       ?candidate_modules@?1??try_get_FlsFree@@YAP6AHK@ZXZ@4QBW4module_id@?A0x14c33c87@@B 000000018001bf90     libvcruntime:winapi_downlevel.obj
 0002:00000fa0       ?candidate_modules@?1??try_get_FlsGetValue@@YAP6APEAXK@ZXZ@4QBW4module_id@?A0x14c33c87@@B 000000018001bfa0     libvcruntime:winapi_downlevel.obj
 0002:00000fb8       ?candidate_modules@?1??try_get_FlsSetValue@@YAP6AHKPEAX@ZXZ@4QBW4module_id@?A0x14c33c87@@B 000000018001bfb8     libvcruntime:winapi_downlevel.obj
 0002:00000fd0       ?candidate_modules@?1??try_get_InitializeCriticalSectionEx@@YAP6AHPEAU_RTL_CRITICAL_SECTION@@KK@ZXZ@4QBW4module_id@?A0x14c33c87@@B 000000018001bfd0     libvcruntime:winapi_downlevel.obj
 0002:00001080       ?errtable@@3QBUerrentry@?A0x31fdb9ec@@B 000000018001c080     libucrt:errno.obj
 0002:00001330       __acrt_initializers        000000018001c330     libucrt:initialization.obj
 0002:00002610       ?_mb_locale_names@@3QBQEB_WB 000000018001d610     libucrt:mbctype.obj
 0002:00002670       ?module_names@?A0x391cf84c@@3QBQEB_WB 000000018001d670     libucrt:winapi_thunks.obj
 0002:00002c18       ?candidate_modules@?1??try_get_AreFileApisANSI@@YAP6AHXZXZ@4QBW4module_id@?A0x391cf84c@@B 000000018001dc18     libucrt:winapi_thunks.obj
 0002:00002c30       ?candidate_modules@?1??try_get_FlsAlloc@@YAP6AKP6AXPEAX@Z@ZXZ@4QBW4module_id@?A0x391cf84c@@B 000000018001dc30     libucrt:winapi_thunks.obj
 0002:00002c48       ?candidate_modules@?1??try_get_FlsFree@@YAP6AHK@ZXZ@4QBW4module_id@?A0x391cf84c@@B 000000018001dc48     libucrt:winapi_thunks.obj
 0002:00002c58       ?candidate_modules@?1??try_get_FlsGetValue@@YAP6APEAXK@ZXZ@4QBW4module_id@?A0x391cf84c@@B 000000018001dc58     libucrt:winapi_thunks.obj
 0002:00002c70       ?candidate_modules@?1??try_get_FlsSetValue@@YAP6AHKPEAX@ZXZ@4QBW4module_id@?A0x391cf84c@@B 000000018001dc70     libucrt:winapi_thunks.obj
 0002:00002c88       ?candidate_modules@?1??try_get_InitializeCriticalSectionEx@@YAP6AHPEAU_RTL_CRITICAL_SECTION@@KK@ZXZ@4QBW4module_id@?A0x391cf84c@@B 000000018001dc88     libucrt:winapi_thunks.obj
 0002:00002cb0       ?candidate_modules@?1??try_get_LCMapStringEx@@YAP6AHPEB_WK0HPEA_WHPEAU_nlsversioninfo@@PEAX_J@ZXZ@4QBW4module_id@?A0x391cf84c@@B 000000018001dcb0     libucrt:winapi_thunks.obj
 0002:00002cc8       ?candidate_modules@?1??try_get_LocaleNameToLCID@@YAP6AKPEB_WK@ZXZ@4QBW4module_id@?A0x391cf84c@@B 000000018001dcc8     libucrt:winapi_thunks.obj
 0002:00002ce4       ?candidate_modules@?1??try_get_AppPolicyGetProcessTerminationMethod@@YAP6AJPEAXPEAW4AppPolicyProcessTerminationMethod@@@ZXZ@4QBW4module_id@?A0x391cf84c@@B 000000018001dce4     libucrt:winapi_thunks.obj
 0002:00003710       ?LcidToLocaleNameTable@?A0x881e4c05@@3QBULcidToLocaleName@1@B 000000018001e710     libucrt:lcidtoname_downlevel.obj
 0002:00005170       ?LocaleNameToIndexTable@?A0x881e4c05@@3QBULocaleNameIndex@1@B 0000000180020170     libucrt:lcidtoname_downlevel.obj
 0002:00006a10       __real_ninf                0000000180021a10     libucrt:log10.obj
 0002:00006a20       __real_inf                 0000000180021a20     libucrt:log10.obj
 0002:00006a30       __real_neg_qnan            0000000180021a30     libucrt:log10.obj
 0002:00006a40       __real_qnanbit             0000000180021a40     libucrt:log10.obj
 0002:00006a50       __int_1023                 0000000180021a50     libucrt:log10.obj
 0002:00006a60       __mask_001                 0000000180021a60     libucrt:log10.obj
 0002:00006a70       __mask_mant                0000000180021a70     libucrt:log10.obj
 0002:00006a80       __mask_mant_top8           0000000180021a80     libucrt:log10.obj
 0002:00006a90       __mask_mant9               0000000180021a90     libucrt:log10.obj
 0002:00006aa0       __real_log10_e             0000000180021aa0     libucrt:log10.obj
 0002:00006ab0       __real_log10_e_lead        0000000180021ab0     libucrt:log10.obj
 0002:00006ac0       __real_log10_e_tail        0000000180021ac0     libucrt:log10.obj
 0002:00006ad0       __real_log10_2_lead        0000000180021ad0     libucrt:log10.obj
 0002:00006ae0       __real_log10_2_tail        0000000180021ae0     libucrt:log10.obj
 0002:00006af0       __real_two                 0000000180021af0     libucrt:log10.obj
 0002:00006b00       __real_one                 0000000180021b00     libucrt:log10.obj
 0002:00006b10       __real_half                0000000180021b10     libucrt:log10.obj
 0002:00006b20       __mask_100                 0000000180021b20     libucrt:log10.obj
 0002:00006b30       __real_1_over_512          0000000180021b30     libucrt:log10.obj
 0002:00006b40       __real_1_over_2            0000000180021b40     libucrt:log10.obj
 0002:00006b50       __real_1_over_3            0000000180021b50     libucrt:log10.obj
 0002:00006b60       __real_1_over_4            0000000180021b60     libucrt:log10.obj
 0002:00006b70       __real_1_over_5            0000000180021b70     libucrt:log10.obj
 0002:00006b80       __real_1_over_6            0000000180021b80     libucrt:log10.obj
 0002:00006b90       __real_neg_1023            0000000180021b90     libucrt:log10.obj
 0002:00006ba0       __mask_2045                0000000180021ba0     libucrt:log10.obj
 0002:00006bb0       __real_threshold           0000000180021bb0     libucrt:log10.obj
 0002:00006bc0       __real_near_one_lt         0000000180021bc0     libucrt:log10.obj
 0002:00006bd0       __real_near_one_gt         0000000180021bd0     libucrt:log10.obj
 0002:00006be0       __real_min_norm            0000000180021be0     libucrt:log10.obj
 0002:00006bf0       __real_notsign             0000000180021bf0     libucrt:log10.obj
 0002:00006c00       __real_ca1                 0000000180021c00     libucrt:log10.obj
 0002:00006c10       __real_ca2                 0000000180021c10     libucrt:log10.obj
 0002:00006c20       __real_ca3                 0000000180021c20     libucrt:log10.obj
 0002:00006c30       __real_ca4                 0000000180021c30     libucrt:log10.obj
 0002:00006c40       __mask_lower               0000000180021c40     libucrt:log10.obj
 0002:00006c50       __flag_x_zero              0000000180021c50     libucrt:log10.obj
 0002:00006c54       __flag_x_neg               0000000180021c54     libucrt:log10.obj
 0002:00006c58       __flag_x_nan               0000000180021c58     libucrt:log10.obj
 0002:000084b0       __real@433fffffffffffff    00000001800234b0     libucrt:fpsr.obj
 0002:000084b8       __real@c33fffffffffffff    00000001800234b8     libucrt:fpsr.obj
 0002:00008d58       $cppxdata$??$WrapCallback@V<lambda_4b130013be4a466940e6fe08d32cda83>@@@details@Napi@@YAPEAUnapi_value__@@V<lambda_4b130013be4a466940e6fe08d32cda83>@@@Z 0000000180023d58     binding.obj
 0002:00008d80       $cppxdata$??$WrapCallback@V<lambda_03ec0e3e2a4187754bc7c97d0c48b30a>@@@details@Napi@@YAPEAUnapi_value__@@V<lambda_03ec0e3e2a4187754bc7c97d0c48b30a>@@@Z 0000000180023d80     binding.obj
 0002:00008da8       $cppxdata$??$WrapCallback@V<lambda_8c7377a71108815b2eee34f099f4cb99>@@@details@Napi@@YAPEAUnapi_value__@@V<lambda_8c7377a71108815b2eee34f099f4cb99>@@@Z 0000000180023da8     binding.obj
 0002:00008dd0       $cppxdata$??0?$Reference@VObject@Napi@@@Napi@@IEAA@AEBV01@@Z 0000000180023dd0     binding.obj
 0002:00008df8       $cppxdata$??0?$PropertyLValue@V?$basic_string@DU?$char_traits@D@std@@V?$allocator@D@2@@std@@@Object@Napi@@AEAA@V12@V?$basic_string@DU?$char_traits@D@std@@V?$allocator@D@2@@std@@@Z 0000000180023df8     binding.obj
 0002:00008e20       $cppxdata$?Init@@YA?AVObject@Napi@@VEnv@2@V12@@Z 0000000180023e20     binding.obj
 0002:00008e48       $cppxdata$?WriteUInt64@?A0x89cbbd6c@@YAXAEBVCallbackInfo@Napi@@@Z 0000000180023e48     binding.obj
 0002:00008e70       $cppxdata$?WriteInt64@?A0x89cbbd6c@@YAXAEBVCallbackInfo@Napi@@@Z 0000000180023e70     binding.obj
 0002:00008e98       $cppxdata$?WriteObject@?A0x89cbbd6c@@YAXAEBVCallbackInfo@Napi@@@Z 0000000180023e98     binding.obj
 0002:00008ec0       $cppxdata$??0TypeError@Napi@@QEAA@AEBV01@@Z 0000000180023ec0     binding.obj
 0002:00008ee8       $cppxdata$??0ObjectReference@Napi@@IEAA@AEBV01@@Z 0000000180023ee8     binding.obj
 0002:00008f10       $cppxdata$?ThrowAsJavaScriptException@Error@Napi@@QEBAXXZ 0000000180023f10     binding.obj
 0002:00008f38       $cppxdata$?Message@Error@Napi@@QEBAAEBV?$basic_string@DU?$char_traits@D@std@@V?$allocator@D@2@@std@@XZ 0000000180023f38     binding.obj
 0002:00008f60       $cppxdata$??0Error@Napi@@QEAA@AEBV01@@Z 0000000180023f60     binding.obj
 0002:00008f88       $cppxdata$??BString@Napi@@QEBA?AV?$basic_string@DU?$char_traits@D@std@@V?$allocator@D@2@@std@@XZ 0000000180023f88     binding.obj
 0002:000097a0       $unwind$uninitialize_allocated_memory 00000001800247a0     libucrt:initialization.obj
 0002:000097a0       $unwind$__std_type_info_destroy_list 00000001800247a0     libvcruntime:std_type_info.obj
 0002:000097a0       $unwind$_set_statfp        00000001800247a0     libucrt:fpctrl.obj
 0002:000097a0       $unwind$?GetUnwindTryBlock@__FrameHandler3@@SAHPEA_KPEAU_xDISPATCHER_CONTEXT@@PEBU_s_FuncInfo@@@Z 00000001800247a0     libvcruntime:ehstate.obj
 0002:000097a0       $unwind$__std_exception_destroy 00000001800247a0     libvcruntime:std_exception.obj
 0002:000097a0       $unwind$fegetenv           00000001800247a0     libucrt:fegetenv.obj
 0002:000097a0       $unwind$fesetenv           00000001800247a0     libucrt:fesetenv.obj
 0002:000097a0       $unwind$feholdexcept       00000001800247a0     libucrt:feholdexcept.obj
 0002:000097a0       $unwind$_IsExceptionObjectToBeDestroyed 00000001800247a0     libvcruntime:ehhelpers.obj
 0002:000097a0       $unwind$??0bad_exception@std@@QEAA@AEBV01@@Z 00000001800247a0     libvcruntime:frame.obj
 0002:000097a0       $unwind$_clrfp             00000001800247a0     libucrt:fpctrl.obj
 0002:000097a0       $unwind$_fflush_nolock     00000001800247a0     libucrt:fflush.obj
 0002:000097a0       $unwind$?StateFromIp@__FrameHandler3@@SAHPEBU_s_FuncInfo@@PEAU_xDISPATCHER_CONTEXT@@_K@Z 00000001800247a0     libvcruntime:ehstate.obj
 0002:000097a0       $unwind$?ExFilterRethrow@@YAHPEAU_EXCEPTION_POINTERS@@PEAUEHExceptionRecord@@PEAH@Z 00000001800247a0     libvcruntime:frame.obj
 0002:000097a0       $unwind$__acrt_getptd_head 00000001800247a0     libucrt:per_thread_data.obj
 0002:000097a0       $unwind$__acrt_allocate_buffer_for_argv 00000001800247a0     libucrt:argv_parsing.obj
 0002:000097a0       $unwind$__acrt_freeptd     00000001800247a0     libucrt:per_thread_data.obj
 0002:000097a0       $unwind$?exit_or_terminate_process@@YAXI@Z 00000001800247a0     libucrt:exit.obj
 0002:000097a0       $unwind$?try_cor_exit_process@@YAXI@Z 00000001800247a0     libucrt:exit.obj
 0002:000097a0       $unwind$initialize_pointers 00000001800247a0     libucrt:initialization.obj
 0002:000097a0       $unwind$__scrt_release_startup_lock 00000001800247a0     LIBCMT:utility.obj
 0002:000097a0       $unwind$__acrt_update_locale_info 00000001800247a0     libucrt:locale_update.obj
 0002:000097a0       $unwind$__acrt_update_multibyte_info 00000001800247a0     libucrt:locale_update.obj
 0002:000097a0       $unwind$??0exception@std@@QEAA@AEBV01@@Z 00000001800247a0     libcpmt:xthrow.obj
 0002:000097a0       $unwind$??0bad_alloc@std@@QEAA@AEBV01@@Z 00000001800247a0     libcpmt:xthrow.obj
 0002:000097a0       $unwind$strcpy_s           00000001800247a0     libucrt:strcpy_s.obj
 0002:000097a0       $unwind$_malloc_base       00000001800247a0     libucrt:malloc_base.obj
 0002:000097a0       $unwind$_callnewh          00000001800247a0     libucrt:new_handler.obj
 0002:000097a0       $unwind$?DloadAcquireSectionWriteAccess@@YAXXZ 00000001800247a0     DelayImp:delayhlp.obj
 0002:000097a0       $unwind$??0logic_error@std@@QEAA@AEBV01@@Z 00000001800247a0     libcpmt:xthrow.obj
 0002:000097a0       $unwind$__acrt_stdio_free_buffer_nolock 00000001800247a0     libucrt:_freebuf.obj
 0002:000097a0       $unwind$__acrt_uninitialize_stdio 00000001800247a0     libucrt:_file.obj
 0002:000097a0       $unwind$??0bad_array_new_length@std@@QEAA@AEBV01@@Z 00000001800247a0     LIBCMT:throw_bad_alloc.obj
 0002:000097a0       $unwind$??0length_error@std@@QEAA@AEBV01@@Z 00000001800247a0     libcpmt:xthrow.obj
 0002:000097a0       $unwind$?ExecutionInCatch@__FrameHandler3@@SA_NPEAU_xDISPATCHER_CONTEXT@@PEBU_s_FuncInfo@@@Z 00000001800247a0     libvcruntime:risctrnsctrl.obj
 0002:000097a0       $unwind$_calloc_base       00000001800247a0     libucrt:calloc_base.obj
 0002:000097a0       $unwind$__acrt_initialize_locks 00000001800247a0     libucrt:locks.obj
 0002:000097a0       $unwind$__acrt_uninitialize_locks 00000001800247a0     libucrt:locks.obj
 0002:000097a0       $unwind$__acrt_get_process_end_policy 00000001800247a0     libucrt:win_policies.obj
 0002:000097a0       $unwind$__raise_securityfailure 00000001800247a0     LIBCMT:gs_report.obj
 0002:000097a0       $unwind$??_Gtype_info@@UEAAPEAXI@Z 00000001800247a0     LIBCMT:std_type_info_static.obj
 0002:000097a0       $unwind$??4?$PropertyLValue@V?$basic_string@DU?$char_traits@D@std@@V?$allocator@D@2@@std@@@Object@Napi@@QEAAAEAV012@AEBV012@@Z 00000001800247a0     binding.obj
 0002:000097a0       $unwind$?type_case_s@?$output_processor@DV?$string_output_adapter@D@__crt_stdio_output@@V?$format_validation_base@DV?$string_output_adapter@D@__crt_stdio_output@@@2@@__crt_stdio_output@@AEAA_NXZ 00000001800247a0     libucrt:output.obj
 0002:000097a0       $unwind$?type_case_c_tchar@?$output_processor@DV?$string_output_adapter@D@__crt_stdio_output@@V?$format_validation_base@DV?$string_output_adapter@D@__crt_stdio_output@@@2@@__crt_stdio_output@@AEAA_ND@Z 00000001800247a0     libucrt:output.obj
 0002:000097a0       $unwind$??1?$PropertyLValue@V?$basic_string@DU?$char_traits@D@std@@V?$allocator@D@2@@std@@@Object@Napi@@QEAA@XZ 00000001800247a0     binding.obj
 0002:000097a0       $unwind$__vcrt_initialize_locks 00000001800247a0     libvcruntime:locks.obj
 0002:000097a0       $unwind$__scrt_initialize_crt 00000001800247a0     LIBCMT:utility.obj
 0002:000097a0       $unwind$??1?$basic_string@DU?$char_traits@D@std@@V?$allocator@D@2@@std@@QEAA@XZ 00000001800247a0     binding.obj
 0002:000097a0       $unwind$__vcrt_uninitialize_locks 00000001800247a0     libvcruntime:locks.obj
 0002:000097a0       $unwind$_SetImageBase      00000001800247a0     libvcruntime:risctrnsctrl.obj
 0002:000097a0       $unwind$?state_case_normal@?$output_processor@DV?$string_output_adapter@D@__crt_stdio_output@@V?$format_validation_base@DV?$string_output_adapter@D@__crt_stdio_output@@@2@@__crt_stdio_output@@AEAA_NXZ 00000001800247a0     libucrt:output.obj
 0002:000097a0       $unwind$__acrt_uninitialize_winapi_thunks 00000001800247a0     libucrt:winapi_thunks.obj
 0002:000097a0       $unwind$__acrt_FlsAlloc    00000001800247a0     libucrt:winapi_thunks.obj
 0002:000097a0       $unwind$?internal_isupper_l@@YA_NHQEAU__crt_locale_pointers@@@Z 00000001800247a0     libucrt:tolower_toupper.obj
 0002:000097a0       $unwind$??1Error@Napi@@UEAA@XZ 00000001800247a0     binding.obj
 0002:000097a0       $unwind$_SetThrowImageBase 00000001800247a0     libvcruntime:risctrnsctrl.obj
 0002:000097a0       $unwind$_clearfp           00000001800247a0     libucrt:ieee.obj
 0002:000097a0       $unwind$_CreateFrameInfo   00000001800247a0     libvcruntime:risctrnsctrl.obj
 0002:000097a0       $unwind$__acrt_FlsFree     00000001800247a0     libucrt:winapi_thunks.obj
 0002:000097a0       $unwind$??_Gexception@stdext@@UEAAPEAXI@Z 00000001800247a0     binding.obj
 0002:000097a0       $unwind$__acrt_FlsGetValue 00000001800247a0     libucrt:winapi_thunks.obj
 0002:000097a0       $unwind$??1?$Reference@VObject@Napi@@@Napi@@QEAA@XZ 00000001800247a0     binding.obj
 0002:000097a0       $unwind$__acrt_AppPolicyGetProcessTerminationMethodInternal 00000001800247a0     libucrt:winapi_thunks.obj
 0002:000097a0       $unwind$__scrt_uninitialize_crt 00000001800247a0     LIBCMT:utility.obj
 0002:000097a0       $unwind$__vcrt_FlsAlloc    00000001800247a0     libvcruntime:winapi_downlevel.obj
 0002:000097a0       $unwind$__vcrt_FlsGetValue 00000001800247a0     libvcruntime:winapi_downlevel.obj
 0002:000097a0       $unwind$__vcrt_FlsFree     00000001800247a0     libvcruntime:winapi_downlevel.obj
 0002:000097a0       $unwind$?load_exe_hook@@YAP6A_JXZIPEAUDelayLoadInfo@@@Z 00000001800247a0     win_delay_load_hook.obj
 0002:000097a0       $unwind$__vcrt_freeptd     00000001800247a0     libvcruntime:per_thread_data.obj
 0002:000097a0       $unwind$??2@YAPEAX_K@Z     00000001800247a0     LIBCMT:new_scalar.obj
 0002:000097a8       $unwind$_snprintf_s        00000001800247a8     binding.obj
 0002:000097b8       $unwind$?Type@Value@Napi@@QEBA?AW4napi_valuetype@@XZ 00000001800247b8     binding.obj
 0002:000097cc       $unwind$?New@Number@Napi@@SA?AV12@PEAUnapi_env__@@N@Z 00000001800247cc     binding.obj
 0002:000097e4       $unwind$??BString@Napi@@QEBA?AV?$basic_string@DU?$char_traits@D@std@@V?$allocator@D@2@@std@@XZ 00000001800247e4     binding.obj
 0002:00009804       $stateUnwindMap$??BString@Napi@@QEBA?AV?$basic_string@DU?$char_traits@D@std@@V?$allocator@D@2@@std@@XZ 0000000180024804     binding.obj
 0002:00009810       $ip2state$??BString@Napi@@QEBA?AV?$basic_string@DU?$char_traits@D@std@@V?$allocator@D@2@@std@@XZ 0000000180024810     binding.obj
 0002:00009828       $unwind$?fin$0@?0???$?RV<lambda_7777bce6b2f8c936911f934f8298dc43>@@AEAV<lambda_f03950bc5685219e0bcd2087efbe011e>@@V<lambda_3883c3dff614d5e0c5f61bb1ac94921c>@@@?$__crt_seh_guarded_call@H@@QEAAH$$QEAV<lambda_7777bce6b2f8c936911f934f8298dc43>@@AEAV<lambda_f03950bc5685219e0bcd2087efbe011e>@@$$QEAV<lambda_3883c3dff614d5e0c5f61bb1ac94921c>@@@Z@4HA 0000000180024828     libucrt:onexit.obj
 0002:00009828       $unwind$?fin$1@?0??FrameUnwindToState@__FrameHandler3@@SAXPEA_KPEAU_xDISPATCHER_CONTEXT@@PEBU_s_FuncInfo@@H@Z@4HA 0000000180024828     libvcruntime:frame.obj
 0002:00009828       $unwind$?dtor$1@?0???BString@Napi@@QEBA?AV?$basic_string@DU?$char_traits@D@std@@V?$allocator@D@2@@std@@XZ@4HA 0000000180024828     binding.obj
 0002:00009828       $unwind$fclose$fin$0       0000000180024828     libucrt:fclose.obj
 0002:00009828       $unwind$_query_new_handler$fin$0 0000000180024828     libucrt:new_handler.obj
 0002:00009828       $unwind$?fin$0@?0??dllmain_crt_process_attach@@YAHQEAUHINSTANCE__@@QEAX@Z@4HA 0000000180024828     LIBCMT:dll_dllmain.obj
 0002:00009828       $unwind$?filt$0@?0??FrameUnwindToState@__FrameHandler3@@SAXPEA_KPEAU_xDISPATCHER_CONTEXT@@PEBU_s_FuncInfo@@H@Z@4HA 0000000180024828     libvcruntime:frame.obj
 0002:00009828       $unwind$?fin$0@?0??update_thread_multibyte_data_internal@@YAPEAU__crt_multibyte_data@@QEAU__acrt_ptd@@QEAPEAU1@@Z@4HA 0000000180024828     libucrt:mbctype.obj
 0002:00009828       $unwind$_IsNonwritableInCurrentImage$filt$0 0000000180024828     LIBCMT:pesect.obj
 0002:00009828       $unwind$?fin$0@?0???$?RV<lambda_410d79af7f07d98d83a3f525b3859a53>@@AEAV<lambda_3e16ef9562a7dcce91392c22ab16ea36>@@V<lambda_38119f0e861e05405d8a144b9b982f0a>@@@?$__crt_seh_guarded_call@X@@QEAAX$$QEAV<lambda_410d79af7f07d98d83a3f525b3859a53>@@AEAV<lambda_3e16ef9562a7dcce91392c22ab16ea36>@@$$QEAV<lambda_38119f0e861e05405d8a144b9b982f0a>@@@Z@4HA 0000000180024828     libucrt:wsetlocale.obj
 0002:00009828       $unwind$__acrt_update_thread_locale_data$fin$0 0000000180024828     libucrt:locale_refcounting.obj
 0002:00009828       $unwind$_fcloseall$fin$0   0000000180024828     libucrt:closeall.obj
 0002:00009828       $unwind$__acrt_initialize_lowio$fin$0 0000000180024828     libucrt:ioinit.obj
 0002:00009828       $unwind$?fin$0@?0???$?RV<lambda_2d41944a1d46af3157314b8a01080d33>@@AEAV<lambda_8f455de75cd7d7f24b4096f044d8b9e6>@@V<lambda_aa500f224e6afead328df44964fe2772>@@@?$__crt_seh_guarded_call@X@@QEAAX$$QEAV<lambda_2d41944a1d46af3157314b8a01080d33>@@AEAV<lambda_8f455de75cd7d7f24b4096f044d8b9e6>@@$$QEAV<lambda_aa500f224e6afead328df44964fe2772>@@@Z@4HA 0000000180024828     libucrt:per_thread_data.obj
 0002:00009828       $unwind$?fin$0@?0???$?RV<lambda_f2e299630e499de9f9a165e60fcd3db5>@@AEAV<lambda_2ae9d31cdba2644fcbeaf08da7c24588>@@V<lambda_40d01ff24d0e7b3814fdbdcee8eab3c7>@@@?$__crt_seh_guarded_call@X@@QEAAX$$QEAV<lambda_f2e299630e499de9f9a165e60fcd3db5>@@AEAV<lambda_2ae9d31cdba2644fcbeaf08da7c24588>@@$$QEAV<lambda_40d01ff24d0e7b3814fdbdcee8eab3c7>@@@Z@4HA 0000000180024828     libucrt:per_thread_data.obj
 0002:00009828       $unwind$__acrt_lowio_ensure_fh_exists$fin$0 0000000180024828     libucrt:osfinfo.obj
 0002:00009828       $unwind$?fin$0@?0???$?RV<lambda_886d6c58226a84441f68b9f2b8217b83>@@AEAV<lambda_ab61a845afdef5b7c387490eaf3616ee>@@V<lambda_f7f22ab5edc0698d5f6905b0d3f44752>@@@?$__crt_seh_guarded_call@X@@QEAAX$$QEAV<lambda_886d6c58226a84441f68b9f2b8217b83>@@AEAV<lambda_ab61a845afdef5b7c387490eaf3616ee>@@$$QEAV<lambda_f7f22ab5edc0698d5f6905b0d3f44752>@@@Z@4HA 0000000180024828     libucrt:fflush.obj
 0002:00009828       $unwind$?fin$0@?0???$?RV<lambda_450d765d439847d4c735a33c368b5fc0>@@AEAV<lambda_44731a7d0e6d81c3e6aa82d741081786>@@V<lambda_601a2a7da3b7a96e9554ac7215c4b07c>@@@?$__crt_seh_guarded_call@P6AXH@Z@@QEAAP6AXH@Z$$QEAV<lambda_450d765d439847d4c735a33c368b5fc0>@@AEAV<lambda_44731a7d0e6d81c3e6aa82d741081786>@@$$QEAV<lambda_601a2a7da3b7a96e9554ac7215c4b07c>@@@Z@4HA 0000000180024828     libucrt:signal.obj
 0002:00009828       $unwind$?fin$0@?0???$?RV<lambda_aa87e3671a710a21b5dc78c0bdf72e11>@@AEAV<lambda_92619d2358a28f41a33ba319515a20b9>@@V<lambda_6992ecaafeb10aed2b74cb1fae11a551>@@@?$__crt_seh_guarded_call@X@@QEAAX$$QEAV<lambda_aa87e3671a710a21b5dc78c0bdf72e11>@@AEAV<lambda_92619d2358a28f41a33ba319515a20b9>@@$$QEAV<lambda_6992ecaafeb10aed2b74cb1fae11a551>@@@Z@4HA 0000000180024828     libucrt:per_thread_data.obj
 0002:00009828       $unwind$?fin$0@?0???$?RV<lambda_0ae27a3a962d80f24befdcbee591983d>@@AEAV<lambda_8d0ee55de4b1038c4002e0adecdf1839>@@V<lambda_dc504788e8f1664fe9b84e20bfb512f2>@@@?$__crt_seh_guarded_call@X@@QEAAX$$QEAV<lambda_0ae27a3a962d80f24befdcbee591983d>@@AEAV<lambda_8d0ee55de4b1038c4002e0adecdf1839>@@$$QEAV<lambda_dc504788e8f1664fe9b84e20bfb512f2>@@@Z@4HA 0000000180024828     libucrt:per_thread_data.obj
 0002:00009828       $unwind$?fin$0@?0???$?RV<lambda_efdfa57d1f175319df784efa44bb7b81>@@AEAV<lambda_5f0a4c1567f8adc6734073e5d1e1b35c>@@V<lambda_2e8a7d3640ea6ccb4c2413664c2db6fd>@@@?$__crt_seh_guarded_call@X@@QEAAX$$QEAV<lambda_efdfa57d1f175319df784efa44bb7b81>@@AEAV<lambda_5f0a4c1567f8adc6734073e5d1e1b35c>@@$$QEAV<lambda_2e8a7d3640ea6ccb4c2413664c2db6fd>@@@Z@4HA 0000000180024828     libucrt:mbctype.obj
 0002:00009828       $unwind$?fin$0@?0???$?RV<lambda_751a882b2c74d4b022dec766aa51a29a>@@AEAV<lambda_628dfdc04ba53c8bfc02c9951375f3f5>@@V<lambda_f6c7be5f7998530c34de24c7437d6b54>@@@?$__crt_seh_guarded_call@H@@QEAAH$$QEAV<lambda_751a882b2c74d4b022dec766aa51a29a>@@AEAV<lambda_628dfdc04ba53c8bfc02c9951375f3f5>@@$$QEAV<lambda_f6c7be5f7998530c34de24c7437d6b54>@@@Z@4HA 0000000180024828     libucrt:close.obj
 0002:00009828       $unwind$?filt$0@?0???R<lambda_6e4b09c48022b2350581041d5f6b0c4c>@@QEBA@XZ@4HA 0000000180024828     libucrt:exit.obj
 0002:00009828       $unwind$?fin$0@?0???$?RV<lambda_d80eeec6fff315bfe5c115232f3240e3>@@AEAV<lambda_6e4b09c48022b2350581041d5f6b0c4c>@@V<lambda_2358e3775559c9db80273638284d5e45>@@@?$__crt_seh_guarded_call@X@@QEAAX$$QEAV<lambda_d80eeec6fff315bfe5c115232f3240e3>@@AEAV<lambda_6e4b09c48022b2350581041d5f6b0c4c>@@$$QEAV<lambda_2358e3775559c9db80273638284d5e45>@@@Z@4HA 0000000180024828     libucrt:exit.obj
 0002:00009828       $unwind$?fin$0@?0???$?RV<lambda_842d9ff0dc9ef11c61343bbaebe7f885>@@AEAV<lambda_c5860995281e5c4ce005b3de8f5874ee>@@V<lambda_d90129c13df834fdcbf8d2b88dafcf2d>@@@?$__crt_seh_guarded_call@X@@QEAAX$$QEAV<lambda_842d9ff0dc9ef11c61343bbaebe7f885>@@AEAV<lambda_c5860995281e5c4ce005b3de8f5874ee>@@$$QEAV<lambda_d90129c13df834fdcbf8d2b88dafcf2d>@@@Z@4HA 0000000180024828     libucrt:fflush.obj
 0002:00009828       $unwind$?filt$0@?0??CxxCallCatchBlock@__FrameHandler3@@SAPEAXPEAU_EXCEPTION_RECORD@@@Z@4HA 0000000180024828     libvcruntime:frame.obj
 0002:00009828       $unwind$?fin$0@?0???$?RV<lambda_a37b2b86f63e897a80ea819b0eb08c01>@@AEAV<lambda_38ce7e780aa69e748d6df282ebc68efe>@@V<lambda_99fb1378e971ab6e7edea83e3a7a83a2>@@@?$__crt_seh_guarded_call@H@@QEAAH$$QEAV<lambda_a37b2b86f63e897a80ea819b0eb08c01>@@AEAV<lambda_38ce7e780aa69e748d6df282ebc68efe>@@$$QEAV<lambda_99fb1378e971ab6e7edea83e3a7a83a2>@@@Z@4HA 0000000180024828     libucrt:commit.obj
 0002:00009828       $unwind$raise$fin$0        0000000180024828     libucrt:signal.obj
 0002:00009828       $unwind$_write$fin$0       0000000180024828     libucrt:write.obj
 0002:00009828       $unwind$__DestructExceptionObject$filt$0 0000000180024828     libvcruntime:ehhelpers.obj
 0002:00009828       $unwind$_ctrlfp$filt$0     0000000180024828     libucrt:fpctrl.obj
 0002:00009828       $unwind$?fin$0@?0??dllmain_crt_process_detach@@YAH_N@Z@4HA 0000000180024828     LIBCMT:dll_dllmain.obj
 0002:00009830       $unwind$??AObject@Napi@@QEAA?AV?$PropertyLValue@V?$basic_string@DU?$char_traits@D@std@@V?$allocator@D@2@@std@@@01@PEBD@Z 0000000180024830     binding.obj
 0002:0000983c       $unwind$?New@Error@Napi@@SA?AV12@PEAUnapi_env__@@@Z 000000018002483c     binding.obj
 0002:00009848       $chain$0$?New@Error@Napi@@SA?AV12@PEAUnapi_env__@@@Z 0000000180024848     binding.obj
 0002:0000985c       $chain$1$?New@Error@Napi@@SA?AV12@PEAUnapi_env__@@@Z 000000018002485c     binding.obj
 0002:0000986c       $unwind$?New@TypeError@Napi@@SA?AV12@PEAUnapi_env__@@PEBD@Z 000000018002486c     binding.obj
 0002:0000986c       $unwind$?New@Error@Napi@@SA?AV12@PEAUnapi_env__@@PEBD@Z 000000018002486c     binding.obj
 0002:00009884       $unwind$__acrt_fp_strflt_to_string 0000000180024884     libucrt:_fptostr.obj
 0002:00009884       $unwind$__acrt_LocaleNameToLCID 0000000180024884     libucrt:winapi_thunks.obj
 0002:00009884       $unwind$_RTC_Terminate     0000000180024884     LIBCMT:initsect.obj
 0002:00009884       $unwind$??_Gbad_exception@std@@UEAAPEAXI@Z 0000000180024884     libvcruntime:frame.obj
 0002:00009884       $unwind$_initterm_e        0000000180024884     libucrt:initterm.obj
 0002:00009884       $unwind$??_Glogic_error@std@@UEAAPEAXI@Z 0000000180024884     libcpmt:xthrow.obj
 0002:00009884       $unwind$??_Gbad_alloc@std@@UEAAPEAXI@Z 0000000180024884     libcpmt:xthrow.obj
 0002:00009884       $unwind$??_Gexception@std@@UEAAPEAXI@Z 0000000180024884     libcpmt:xthrow.obj
 0002:00009884       $unwind$__acrt_FlsSetValue 0000000180024884     libucrt:winapi_thunks.obj
 0002:00009884       $unwind$_FindAndUnlinkFrame 0000000180024884     libvcruntime:risctrnsctrl.obj
 0002:00009884       $unwind$??$common_initialize_environment_nolock@D@@YAHXZ 0000000180024884     libucrt:environment_initialization.obj
 0002:00009884       $unwind$__acrt_execute_uninitializers 0000000180024884     libucrt:shared_initialization.obj
 0002:00009884       $unwind$__acrt_errno_map_os_error 0000000180024884     libucrt:errno.obj
 0002:00009884       $unwind$_fclose_nolock     0000000180024884     libucrt:fclose.obj
 0002:00009884       $unwind$__acrt_uninitialize_lowio 0000000180024884     libucrt:ioinit.obj
 0002:00009884       $unwind$?SetUnwindTryBlock@__FrameHandler3@@SAXPEA_KPEAU_xDISPATCHER_CONTEXT@@PEBU_s_FuncInfo@@H@Z 0000000180024884     libvcruntime:ehstate.obj
 0002:00009884       $unwind$??_Gbad_array_new_length@std@@UEAAPEAXI@Z 0000000180024884     LIBCMT:throw_bad_alloc.obj
 0002:00009884       $unwind$_close_nolock      0000000180024884     libucrt:close.obj
 0002:00009884       $unwind$_updatetlocinfoEx_nolock 0000000180024884     libucrt:locale_refcounting.obj
 0002:00009884       $unwind$?replace_current_thread_locale_nolock@@YAXQEAU__acrt_ptd@@QEAU__crt_locale_data@@@Z 0000000180024884     libucrt:per_thread_data.obj
 0002:00009884       $unwind$??_Glength_error@std@@UEAAPEAXI@Z 0000000180024884     libcpmt:xthrow.obj
 0002:00009884       $unwind$_RTC_Initialize    0000000180024884     LIBCMT:initsect.obj
 0002:00009884       $unwind$?DloadGetSRWLockFunctionPointers@@YAEXZ 0000000180024884     DelayImp:delayhlp.obj
 0002:00009884       $unwind$strncpy_s          0000000180024884     libucrt:strncpy_s.obj
 0002:00009884       $unwind$??_GTypeError@Napi@@UEAAPEAXI@Z 0000000180024884     binding.obj
 0002:00009884       $unwind$?force_decimal_point@__crt_stdio_output@@YAXPEADQEAU__crt_locale_pointers@@@Z 0000000180024884     libucrt:output.obj
 0002:00009884       $unwind$_realloc_base      0000000180024884     libucrt:realloc_base.obj
 0002:00009884       $unwind$__vcrt_FlsSetValue 0000000180024884     libvcruntime:winapi_downlevel.obj
 0002:00009884       $unwind$??_GError@Napi@@UEAAPEAXI@Z 0000000180024884     binding.obj
 0002:00009890       $unwind$??0Error@Napi@@QEAA@AEBV01@@Z 0000000180024890     binding.obj
 0002:000098b0       $stateUnwindMap$??0ObjectReference@Napi@@IEAA@AEBV01@@Z 00000001800248b0     binding.obj
 0002:000098b0       $stateUnwindMap$??0TypeError@Napi@@QEAA@AEBV01@@Z 00000001800248b0     binding.obj
 0002:000098b0       $stateUnwindMap$??0Error@Napi@@QEAA@AEBV01@@Z 00000001800248b0     binding.obj
 0002:000098b8       $ip2state$??0Error@Napi@@QEAA@AEBV01@@Z 00000001800248b8     binding.obj
 0002:000098d0       $unwind$?Message@Error@Napi@@QEBAAEBV?$basic_string@DU?$char_traits@D@std@@V?$allocator@D@2@@std@@XZ 00000001800248d0     binding.obj
 0002:000098f0       $stateUnwindMap$?Message@Error@Napi@@QEBAAEBV?$basic_string@DU?$char_traits@D@std@@V?$allocator@D@2@@std@@XZ 00000001800248f0     binding.obj
 0002:00009908       $tryMap$?Message@Error@Napi@@QEBAAEBV?$basic_string@DU?$char_traits@D@std@@V?$allocator@D@2@@std@@XZ 0000000180024908     binding.obj
 0002:0000991c       $handlerMap$0$?Message@Error@Napi@@QEBAAEBV?$basic_string@DU?$char_traits@D@std@@V?$allocator@D@2@@std@@XZ 000000018002491c     binding.obj
 0002:00009930       $ip2state$?Message@Error@Napi@@QEBAAEBV?$basic_string@DU?$char_traits@D@std@@V?$allocator@D@2@@std@@XZ 0000000180024930     binding.obj
 0002:00009958       $unwind$?catch$6@?0??Message@Error@Napi@@QEBAAEBV?$basic_string@DU?$char_traits@D@std@@V?$allocator@D@2@@std@@XZ@4HA 0000000180024958     binding.obj
 0002:00009968       $unwind$?ThrowAsJavaScriptException@Error@Napi@@QEBAXXZ 0000000180024968     binding.obj
 0002:00009980       $stateUnwindMap$??0?$Reference@VObject@Napi@@@Napi@@IEAA@AEBV01@@Z 0000000180024980     binding.obj
 0002:00009980       $stateUnwindMap$?ThrowAsJavaScriptException@Error@Napi@@QEBAXXZ 0000000180024980     binding.obj
 0002:00009988       $ip2state$?ThrowAsJavaScriptException@Error@Napi@@QEBAXXZ 0000000180024988     binding.obj
 0002:000099a8       $unwind$__vcrt_initialize_ptd 00000001800249a8     libvcruntime:per_thread_data.obj
 0002:000099a8       $unwind$_msize_base        00000001800249a8     libucrt:msize.obj
 0002:000099a8       $unwind$__vcrt_uninitialize_ptd 00000001800249a8     libvcruntime:per_thread_data.obj
 0002:000099a8       $unwind$?initialize_multibyte@@YAHXZ 00000001800249a8     libucrt:multibyte_initializer.obj
 0002:000099a8       $unwind$__acrt_AreFileApisANSI 00000001800249a8     libucrt:winapi_thunks.obj
 0002:000099a8       $unwind$__vcrt_getptd      00000001800249a8     libvcruntime:per_thread_data.obj
 0002:000099a8       $unwind$uninitialize_environment 00000001800249a8     libucrt:initialization.obj
 0002:000099a8       $unwind$__scrt_dllmain_uninitialize_critical 00000001800249a8     LIBCMT:utility.obj
 0002:000099a8       $unwind$??$uninitialize_environment_internal@_W@@YAXAEAPEAPEA_W@Z 00000001800249a8     libucrt:environment_initialization.obj
 0002:000099a8       $unwind$__report_rangecheckfailure 00000001800249a8     LIBCMT:gs_report.obj
 0002:000099a8       $unwind$__scrt_dllmain_crt_thread_attach 00000001800249a8     LIBCMT:utility.obj
 0002:000099a8       $unwind$__GSHandlerCheck   00000001800249a8     LIBCMT:gshandler.obj
 0002:000099a8       $unwind$?state_case_normal_tchar@?$output_processor@DV?$string_output_adapter@D@__crt_stdio_output@@V?$format_validation_base@DV?$string_output_adapter@D@__crt_stdio_output@@@2@@__crt_stdio_output@@AEAA_ND@Z 00000001800249a8     libucrt:output.obj
 0002:000099a8       $unwind$__acrt_initialize_command_line 00000001800249a8     libucrt:argv_data.obj
 0002:000099a8       $unwind$__scrt_acquire_startup_lock 00000001800249a8     LIBCMT:utility.obj
 0002:000099a8       $unwind$__vcrt_freefls     00000001800249a8     libvcruntime:per_thread_data.obj
 0002:000099a8       $unwind$__scrt_dllmain_before_initialize_c 00000001800249a8     LIBCMT:utility.obj
 0002:000099a8       $unwind$__acrt_DownlevelLocaleNameToLCID 00000001800249a8     libucrt:lcidtoname_downlevel.obj
 0002:000099a8       $unwind$__acrt_thread_detach 00000001800249a8     libucrt:initialization.obj
 0002:000099a8       $unwind$__vcrt_initialize  00000001800249a8     libvcruntime:initialization.obj
 0002:000099a8       $unwind$?what@Error@Napi@@UEBAPEBDXZ 00000001800249a8     binding.obj
 0002:000099a8       $unwind$__acrt_thread_attach 00000001800249a8     libucrt:initialization.obj
 0002:000099a8       $unwind$__dcrt_terminate_console_output 00000001800249a8     libucrt:initcon.obj
 0002:000099a8       $unwind$?GetCurrentState@__FrameHandler3@@SAHPEA_KPEAU_xDISPATCHER_CONTEXT@@PEBU_s_FuncInfo@@@Z 00000001800249a8     libvcruntime:ehstate.obj
 0002:000099a8       $unwind$__vcrt_thread_attach 00000001800249a8     libvcruntime:initialization.obj
 0002:000099a8       $unwind$__acrt_uninitialize_ptd 00000001800249a8     libucrt:per_thread_data.obj
 0002:000099a8       $unwind$__acrt_uninitialize_critical 00000001800249a8     libucrt:initialization.obj
 0002:000099a8       $unwind$__vcrt_uninitialize 00000001800249a8     libvcruntime:initialization.obj
 0002:000099a8       $unwind$_errno             00000001800249a8     libucrt:errno.obj
 0002:000099a8       $unwind$?DloadReleaseSectionWriteAccess@@YAXXZ 00000001800249a8     DelayImp:delayhlp.obj
 0002:000099a8       $unwind$__acrt_uninitialize 00000001800249a8     libucrt:initialization.obj
 0002:000099a8       $unwind$__doserrno         00000001800249a8     libucrt:errno.obj
 0002:000099a8       $unwind$_get_osfhandle     00000001800249a8     libucrt:osfinfo.obj
 0002:000099a8       $unwind$__acrt_release_locale_ref 00000001800249a8     libucrt:locale_refcounting.obj
 0002:000099a8       $unwind$?_Xlen@?$basic_string@DU?$char_traits@D@std@@V?$allocator@D@2@@std@@SAXXZ 00000001800249a8     binding.obj
 0002:000099a8       $unwind$_isatty            00000001800249a8     libucrt:isatty.obj
 0002:000099a8       $unwind$__acrt_initialize_ptd 00000001800249a8     libucrt:per_thread_data.obj
 0002:000099a8       $unwind$_fileno            00000001800249a8     libucrt:fileno.obj
 0002:000099a8       $unwind$_invoke_watson     00000001800249a8     libucrt:invalid_parameter.obj
 0002:000099a8       $unwind$__scrt_dllmain_after_initialize_c 00000001800249a8     LIBCMT:utility.obj
 0002:000099a8       $unwind$__vcrt_uninitialize_critical 00000001800249a8     libvcruntime:initialization.obj
 0002:000099a8       $unwind$_stricmp           00000001800249a8     libucrt:stricmp.obj
 0002:000099a8       $unwind$_statfp            00000001800249a8     libucrt:fpctrl.obj
 0002:000099a8       $unwind$_GetImageBase      00000001800249a8     libvcruntime:risctrnsctrl.obj
 0002:000099a8       $unwind$__pctype_func      00000001800249a8     libucrt:ctype.obj
 0002:000099a8       $unwind$initialize_c       00000001800249a8     libucrt:initialization.obj
 0002:000099a8       $unwind$_set_errno_from_matherr 00000001800249a8     libucrt:fpexcept.obj
 0002:000099a8       $unwind$?dllmain_crt_dispatch@@YAHQEAUHINSTANCE__@@KQEAX@Z 00000001800249a8     LIBCMT:dll_dllmain.obj
 0002:000099a8       $unwind$tolower            00000001800249a8     libucrt:tolower_toupper.obj
 0002:000099a8       $unwind$__acrt_initialize_multibyte 00000001800249a8     libucrt:mbctype.obj
 0002:000099a8       $unwind$__scrt_dllmain_uninitialize_c 00000001800249a8     LIBCMT:utility.obj
 0002:000099a8       $unwind$abort              00000001800249a8     libucrt:abort.obj
 0002:000099a8       $unwind$__FrameUnwindFilter 00000001800249a8     libvcruntime:ehhelpers.obj
 0002:000099a8       $unwind$__acrt_update_thread_multibyte_data 00000001800249a8     libucrt:mbctype.obj
 0002:000099a8       $unwind$__acrt_initialize_heap 00000001800249a8     libucrt:heap_handle.obj
 0002:000099a8       $unwind$__vcrt_thread_detach 00000001800249a8     libvcruntime:initialization.obj
 0002:000099a8       $unwind$__scrt_initialize_default_local_stdio_options 00000001800249a8     LIBCMT:default_local_stdio_options.obj
 0002:000099a8       $unwind$?__c32rtomb_utf8@__crt_mbstring@@YA_KPEAD_UPEAU_Mbstatet@@@Z 00000001800249a8     libucrt:c32rtomb.obj
 0002:000099a8       $unwind$_GetThrowImageBase 00000001800249a8     libvcruntime:risctrnsctrl.obj
 0002:000099a8       $unwind$__scrt_dllmain_crt_thread_detach 00000001800249a8     LIBCMT:utility.obj
 0002:000099a8       $unwind$__dcrt_uninitialize_environments_nolock 00000001800249a8     libucrt:environment_initialization.obj
 0002:000099a8       $unwind$uninitialize_allocated_io_buffers 00000001800249a8     libucrt:initialization.obj
 0002:000099a8       $unwind$??$uninitialize_environment_internal@D@@YAXAEAPEAPEAD@Z 00000001800249a8     libucrt:environment_initialization.obj
 0002:000099a8       $unwind$?state_case_size@?$output_processor@DV?$string_output_adapter@D@__crt_stdio_output@@V?$format_validation_base@DV?$string_output_adapter@D@__crt_stdio_output@@@2@@__crt_stdio_output@@AEAA_NXZ 00000001800249a8     libucrt:output.obj
 0002:000099b0       $unwind$??0ObjectReference@Napi@@IEAA@AEBV01@@Z 00000001800249b0     binding.obj
 0002:000099d0       $ip2state$??0ObjectReference@Napi@@IEAA@AEBV01@@Z 00000001800249d0     binding.obj
 0002:000099e8       $unwind$??0CallbackInfo@Napi@@QEAA@PEAUnapi_env__@@PEAUnapi_callback_info__@@@Z 00000001800249e8     binding.obj
 0002:00009a04       $unwind$??ACallbackInfo@Napi@@QEBA?BVValue@1@_K@Z 0000000180024a04     binding.obj
 0002:00009a1c       $unwind$?AddressForArgs@?A0x89cbbd6c@@YAPEADAEBVCallbackInfo@Napi@@_K@Z 0000000180024a1c     binding.obj
 0002:00009a34       $chain$1$?AddressForArgs@?A0x89cbbd6c@@YAPEADAEBVCallbackInfo@Napi@@_K@Z 0000000180024a34     binding.obj
 0002:00009a4c       $chain$5$?AddressForArgs@?A0x89cbbd6c@@YAPEADAEBVCallbackInfo@Napi@@_K@Z 0000000180024a4c     binding.obj
 0002:00009a4c       $chain$3$?AddressForArgs@?A0x89cbbd6c@@YAPEADAEBVCallbackInfo@Napi@@_K@Z 0000000180024a4c     binding.obj
 0002:00009a64       $chain$4$?AddressForArgs@?A0x89cbbd6c@@YAPEADAEBVCallbackInfo@Napi@@_K@Z 0000000180024a64     binding.obj
 0002:00009a74       $unwind$??0TypeError@Napi@@QEAA@AEBV01@@Z 0000000180024a74     binding.obj
 0002:00009a98       $ip2state$??0TypeError@Napi@@QEAA@AEBV01@@Z 0000000180024a98     binding.obj
 0002:00009ab0       $unwind$?Address@?A0x89cbbd6c@@YA?AVValue@Napi@@AEBVCallbackInfo@3@@Z 0000000180024ab0     binding.obj
 0002:00009ab0       $unwind$?ReadCString@?A0x89cbbd6c@@YA?AVValue@Napi@@AEBVCallbackInfo@3@@Z 0000000180024ab0     binding.obj
 0002:00009ab0       $unwind$?IsNull@?A0x89cbbd6c@@YA?AVValue@Napi@@AEBVCallbackInfo@3@@Z 0000000180024ab0     binding.obj
 0002:00009ac8       $unwind$?HexAddress@?A0x89cbbd6c@@YA?AVValue@Napi@@AEBVCallbackInfo@3@@Z 0000000180024ac8     binding.obj
 0002:00009ae4       $unwind$?WrapPointer@?A0x89cbbd6c@@YA?AVValue@Napi@@VEnv@3@PEAD_K@Z 0000000180024ae4     binding.obj
 0002:00009b04       $unwind$?ReadObject@?A0x89cbbd6c@@YA?AVValue@Napi@@AEBVCallbackInfo@3@@Z 0000000180024b04     binding.obj
 0002:00009b20       $unwind$?WriteObject@?A0x89cbbd6c@@YAXAEBVCallbackInfo@Napi@@@Z 0000000180024b20     binding.obj
 0002:00009b40       $stateUnwindMap$?WriteObject@?A0x89cbbd6c@@YAXAEBVCallbackInfo@Napi@@@Z 0000000180024b40     binding.obj
 0002:00009b48       $ip2state$?WriteObject@?A0x89cbbd6c@@YAXAEBVCallbackInfo@Napi@@@Z 0000000180024b48     binding.obj
 0002:00009b70       $unwind$?ReadPointer@?A0x89cbbd6c@@YA?AVValue@Napi@@AEBVCallbackInfo@3@@Z 0000000180024b70     binding.obj
 0002:00009b8c       $unwind$?WritePointer@?A0x89cbbd6c@@YAXAEBVCallbackInfo@Napi@@@Z 0000000180024b8c     binding.obj
 0002:00009bac       $unwind$?ReadInt64@?A0x89cbbd6c@@YA?AVValue@Napi@@AEBVCallbackInfo@3@@Z 0000000180024bac     binding.obj
 0002:00009bac       $unwind$?ReadUInt64@?A0x89cbbd6c@@YA?AVValue@Napi@@AEBVCallbackInfo@3@@Z 0000000180024bac     binding.obj
 0002:00009bc4       $chain$0$?ReadInt64@?A0x89cbbd6c@@YA?AVValue@Napi@@AEBVCallbackInfo@3@@Z 0000000180024bc4     binding.obj
 0002:00009bd8       $chain$1$?ReadInt64@?A0x89cbbd6c@@YA?AVValue@Napi@@AEBVCallbackInfo@3@@Z 0000000180024bd8     binding.obj
 0002:00009be8       $unwind$?WriteInt64@?A0x89cbbd6c@@YAXAEBVCallbackInfo@Napi@@@Z 0000000180024be8     binding.obj
 0002:00009c0c       $stateUnwindMap$?WriteUInt64@?A0x89cbbd6c@@YAXAEBVCallbackInfo@Napi@@@Z 0000000180024c0c     binding.obj
 0002:00009c0c       $stateUnwindMap$?WriteInt64@?A0x89cbbd6c@@YAXAEBVCallbackInfo@Napi@@@Z 0000000180024c0c     binding.obj
 0002:00009c18       $ip2state$?WriteInt64@?A0x89cbbd6c@@YAXAEBVCallbackInfo@Napi@@@Z 0000000180024c18     binding.obj
 0002:00009c38       $chain$0$?ReadUInt64@?A0x89cbbd6c@@YA?AVValue@Napi@@AEBVCallbackInfo@3@@Z 0000000180024c38     binding.obj
 0002:00009c4c       $chain$1$?ReadUInt64@?A0x89cbbd6c@@YA?AVValue@Napi@@AEBVCallbackInfo@3@@Z 0000000180024c4c     binding.obj
 0002:00009c5c       $unwind$?WriteUInt64@?A0x89cbbd6c@@YAXAEBVCallbackInfo@Napi@@@Z 0000000180024c5c     binding.obj
 0002:00009c80       $ip2state$?WriteUInt64@?A0x89cbbd6c@@YAXAEBVCallbackInfo@Napi@@@Z 0000000180024c80     binding.obj
 0002:00009ca0       $unwind$?ReinterpretBuffer@?A0x89cbbd6c@@YA?AVValue@Napi@@AEBVCallbackInfo@3@@Z 0000000180024ca0     binding.obj
 0002:00009ca0       $unwind$?ReinterpretBufferUntilZeros@?A0x89cbbd6c@@YA?AVValue@Napi@@AEBVCallbackInfo@3@@Z 0000000180024ca0     binding.obj
 0002:00009cbc       $unwind$?Init@@YA?AVObject@Napi@@VEnv@2@V12@@Z 0000000180024cbc     binding.obj
 0002:00009cf8       $stateUnwindMap$?Init@@YA?AVObject@Napi@@VEnv@2@V12@@Z 0000000180024cf8     binding.obj
 0002:00009f10       $ip2state$?Init@@YA?AVObject@Napi@@VEnv@2@V12@@Z 0000000180024f10     binding.obj
 0002:0000a4e8       $unwind$?__napi_Init@@YAPEAUnapi_value__@@PEAUnapi_env__@@PEAU1@@Z 00000001800254e8     binding.obj
 0002:0000a4f0       $unwind$?reserve@?$basic_string@DU?$char_traits@D@std@@V?$allocator@D@2@@std@@QEAAX_K@Z 00000001800254f0     binding.obj
 0002:0000a4fc       $chain$0$?reserve@?$basic_string@DU?$char_traits@D@std@@V?$allocator@D@2@@std@@QEAAX_K@Z 00000001800254fc     binding.obj
 0002:0000a510       $chain$2$?reserve@?$basic_string@DU?$char_traits@D@std@@V?$allocator@D@2@@std@@QEAAX_K@Z 0000000180025510     binding.obj
 0002:0000a528       $chain$3$?reserve@?$basic_string@DU?$char_traits@D@std@@V?$allocator@D@2@@std@@QEAAX_K@Z 0000000180025528     binding.obj
 0002:0000a538       $chain$4$?reserve@?$basic_string@DU?$char_traits@D@std@@V?$allocator@D@2@@std@@QEAAX_K@Z 0000000180025538     binding.obj
 0002:0000a548       $chain$5$?reserve@?$basic_string@DU?$char_traits@D@std@@V?$allocator@D@2@@std@@QEAAX_K@Z 0000000180025548     binding.obj
 0002:0000a564       $unwind$?assign@?$basic_string@DU?$char_traits@D@std@@V?$allocator@D@2@@std@@QEAAAEAV12@QEBD_K@Z 0000000180025564     binding.obj
 0002:0000a578       $chain$0$?assign@?$basic_string@DU?$char_traits@D@std@@V?$allocator@D@2@@std@@QEAAAEAV12@QEBD_K@Z 0000000180025578     binding.obj
 0002:0000a58c       $chain$1$?assign@?$basic_string@DU?$char_traits@D@std@@V?$allocator@D@2@@std@@QEAAAEAV12@QEBD_K@Z 000000018002558c     binding.obj
 0002:0000a59c       $chain$2$?assign@?$basic_string@DU?$char_traits@D@std@@V?$allocator@D@2@@std@@QEAAAEAV12@QEBD_K@Z 000000018002559c     binding.obj
 0002:0000a5b0       $unwind$??0?$PropertyLValue@V?$basic_string@DU?$char_traits@D@std@@V?$allocator@D@2@@std@@@Object@Napi@@AEAA@V12@V?$basic_string@DU?$char_traits@D@std@@V?$allocator@D@2@@std@@@Z 00000001800255b0     binding.obj
 0002:0000a5d0       $stateUnwindMap$??0?$PropertyLValue@V?$basic_string@DU?$char_traits@D@std@@V?$allocator@D@2@@std@@@Object@Napi@@AEAA@V12@V?$basic_string@DU?$char_traits@D@std@@V?$allocator@D@2@@std@@@Z 00000001800255d0     binding.obj
 0002:0000a5d8       $ip2state$??0?$PropertyLValue@V?$basic_string@DU?$char_traits@D@std@@V?$allocator@D@2@@std@@@Object@Napi@@AEAA@V12@V?$basic_string@DU?$char_traits@D@std@@V?$allocator@D@2@@std@@@Z 00000001800255d8     binding.obj
 0002:0000a5f0       $unwind$??0?$Reference@VObject@Napi@@@Napi@@IEAA@AEBV01@@Z 00000001800255f0     binding.obj
 0002:0000a610       $ip2state$??0?$Reference@VObject@Napi@@@Napi@@IEAA@AEBV01@@Z 0000000180025610     binding.obj
 0002:0000a628       $unwind$?Reset@?$Reference@VObject@Napi@@@Napi@@QEAAXXZ 0000000180025628     binding.obj
 0002:0000a638       $unwind$??$WrapCallback@V<lambda_8c7377a71108815b2eee34f099f4cb99>@@@details@Napi@@YAPEAUnapi_value__@@V<lambda_8c7377a71108815b2eee34f099f4cb99>@@@Z 0000000180025638     binding.obj
 0002:0000a648       $stateUnwindMap$??$WrapCallback@V<lambda_8c7377a71108815b2eee34f099f4cb99>@@@details@Napi@@YAPEAUnapi_value__@@V<lambda_8c7377a71108815b2eee34f099f4cb99>@@@Z 0000000180025648     binding.obj
 0002:0000a658       $tryMap$??$WrapCallback@V<lambda_8c7377a71108815b2eee34f099f4cb99>@@@details@Napi@@YAPEAUnapi_value__@@V<lambda_8c7377a71108815b2eee34f099f4cb99>@@@Z 0000000180025658     binding.obj
 0002:0000a66c       $handlerMap$0$??$WrapCallback@V<lambda_8c7377a71108815b2eee34f099f4cb99>@@@details@Napi@@YAPEAUnapi_value__@@V<lambda_8c7377a71108815b2eee34f099f4cb99>@@@Z 000000018002566c     binding.obj
 0002:0000a680       $ip2state$??$WrapCallback@V<lambda_8c7377a71108815b2eee34f099f4cb99>@@@details@Napi@@YAPEAUnapi_value__@@V<lambda_8c7377a71108815b2eee34f099f4cb99>@@@Z 0000000180025680     binding.obj
 0002:0000a690       $unwind$?catch$0@?0???$WrapCallback@V<lambda_8c7377a71108815b2eee34f099f4cb99>@@@details@Napi@@YAPEAUnapi_value__@@V<lambda_8c7377a71108815b2eee34f099f4cb99>@@@Z@4HA 0000000180025690     binding.obj
 0002:0000a6a0       $unwind$??$?4VObject@Napi@@@?$PropertyLValue@V?$basic_string@DU?$char_traits@D@std@@V?$allocator@D@2@@std@@@Object@Napi@@QEAAAEAV012@V12@@Z 00000001800256a0     binding.obj
 0002:0000a6a0       $unwind$??$?4VFunction@Napi@@@?$PropertyLValue@V?$basic_string@DU?$char_traits@D@std@@V?$allocator@D@2@@std@@@Object@Napi@@QEAAAEAV012@VFunction@2@@Z 00000001800256a0     binding.obj
 0002:0000a6a0       $unwind$??$?4VNumber@Napi@@@?$PropertyLValue@V?$basic_string@DU?$char_traits@D@std@@V?$allocator@D@2@@std@@@Object@Napi@@QEAAAEAV012@VNumber@2@@Z 00000001800256a0     binding.obj
 0002:0000a6a0       $unwind$??$?4VValue@Napi@@@?$PropertyLValue@V?$basic_string@DU?$char_traits@D@std@@V?$allocator@D@2@@std@@@Object@Napi@@QEAAAEAV012@VValue@2@@Z 00000001800256a0     binding.obj
 0002:0000a6b4       $unwind$??$New@P6AXAEBVCallbackInfo@Napi@@@Z@Function@Napi@@SA?AV01@PEAUnapi_env__@@P6AXAEBVCallbackInfo@1@@ZPEBDPEAX@Z 00000001800256b4     binding.obj
 0002:0000a6b4       $unwind$??$New@P6A?AVValue@Napi@@AEBVCallbackInfo@2@@Z@Function@Napi@@SA?AV01@PEAUnapi_env__@@P6A?AVValue@1@AEBVCallbackInfo@1@@ZPEBDPEAX@Z 00000001800256b4     binding.obj
 0002:0000a6d4       $unwind$??$_Reallocate_grow_by@V<lambda_e1befb086ad3257e3f042a63030725f7>@@_KD@?$basic_string@DU?$char_traits@D@std@@V?$allocator@D@2@@std@@QEAAAEAV01@_KV<lambda_e1befb086ad3257e3f042a63030725f7>@@_KD@Z 00000001800256d4     binding.obj
 0002:0000a6e4       $chain$2$??$_Reallocate_grow_by@V<lambda_e1befb086ad3257e3f042a63030725f7>@@_KD@?$basic_string@DU?$char_traits@D@std@@V?$allocator@D@2@@std@@QEAAAEAV01@_KV<lambda_e1befb086ad3257e3f042a63030725f7>@@_KD@Z 00000001800256e4     binding.obj
 0002:0000a700       $chain$4$??$_Reallocate_grow_by@V<lambda_e1befb086ad3257e3f042a63030725f7>@@_KD@?$basic_string@DU?$char_traits@D@std@@V?$allocator@D@2@@std@@QEAAAEAV01@_KV<lambda_e1befb086ad3257e3f042a63030725f7>@@_KD@Z 0000000180025700     binding.obj
 0002:0000a71c       $chain$5$??$_Reallocate_grow_by@V<lambda_e1befb086ad3257e3f042a63030725f7>@@_KD@?$basic_string@DU?$char_traits@D@std@@V?$allocator@D@2@@std@@QEAAAEAV01@_KV<lambda_e1befb086ad3257e3f042a63030725f7>@@_KD@Z 000000018002571c     binding.obj
 0002:0000a72c       $unwind$?Wrapper@?$CallbackData@P6AXAEBVCallbackInfo@Napi@@@ZX@details@Napi@@SAPEAUnapi_value__@@PEAUnapi_env__@@PEAUnapi_callback_info__@@@Z 000000018002572c     binding.obj
 0002:0000a72c       $unwind$?Wrapper@?$CallbackData@P6A?AVValue@Napi@@AEBVCallbackInfo@2@@ZV12@@details@Napi@@SAPEAUnapi_value__@@PEAUnapi_env__@@PEAUnapi_callback_info__@@@Z 000000018002572c     binding.obj
 0002:0000a734       $unwind$??$WrapCallback@V<lambda_03ec0e3e2a4187754bc7c97d0c48b30a>@@@details@Napi@@YAPEAUnapi_value__@@V<lambda_03ec0e3e2a4187754bc7c97d0c48b30a>@@@Z 0000000180025734     binding.obj
 0002:0000a744       $stateUnwindMap$??$WrapCallback@V<lambda_03ec0e3e2a4187754bc7c97d0c48b30a>@@@details@Napi@@YAPEAUnapi_value__@@V<lambda_03ec0e3e2a4187754bc7c97d0c48b30a>@@@Z 0000000180025744     binding.obj
 0002:0000a75c       $tryMap$??$WrapCallback@V<lambda_03ec0e3e2a4187754bc7c97d0c48b30a>@@@details@Napi@@YAPEAUnapi_value__@@V<lambda_03ec0e3e2a4187754bc7c97d0c48b30a>@@@Z 000000018002575c     binding.obj
 0002:0000a770       $handlerMap$0$??$WrapCallback@V<lambda_03ec0e3e2a4187754bc7c97d0c48b30a>@@@details@Napi@@YAPEAUnapi_value__@@V<lambda_03ec0e3e2a4187754bc7c97d0c48b30a>@@@Z 0000000180025770     binding.obj
 0002:0000a788       $ip2state$??$WrapCallback@V<lambda_03ec0e3e2a4187754bc7c97d0c48b30a>@@@details@Napi@@YAPEAUnapi_value__@@V<lambda_03ec0e3e2a4187754bc7c97d0c48b30a>@@@Z 0000000180025788     binding.obj
 0002:0000a7a0       $unwind$?catch$1@?0???$WrapCallback@V<lambda_03ec0e3e2a4187754bc7c97d0c48b30a>@@@details@Napi@@YAPEAUnapi_value__@@V<lambda_03ec0e3e2a4187754bc7c97d0c48b30a>@@@Z@4HA 00000001800257a0     binding.obj
 0002:0000a7b0       $unwind$??$WrapCallback@V<lambda_4b130013be4a466940e6fe08d32cda83>@@@details@Napi@@YAPEAUnapi_value__@@V<lambda_4b130013be4a466940e6fe08d32cda83>@@@Z 00000001800257b0     binding.obj
 0002:0000a7c0       $stateUnwindMap$??$WrapCallback@V<lambda_4b130013be4a466940e6fe08d32cda83>@@@details@Napi@@YAPEAUnapi_value__@@V<lambda_4b130013be4a466940e6fe08d32cda83>@@@Z 00000001800257c0     binding.obj
 0002:0000a7d8       $tryMap$??$WrapCallback@V<lambda_4b130013be4a466940e6fe08d32cda83>@@@details@Napi@@YAPEAUnapi_value__@@V<lambda_4b130013be4a466940e6fe08d32cda83>@@@Z 00000001800257d8     binding.obj
 0002:0000a7ec       $handlerMap$0$??$WrapCallback@V<lambda_4b130013be4a466940e6fe08d32cda83>@@@details@Napi@@YAPEAUnapi_value__@@V<lambda_4b130013be4a466940e6fe08d32cda83>@@@Z 00000001800257ec     binding.obj
 0002:0000a800       $ip2state$??$WrapCallback@V<lambda_4b130013be4a466940e6fe08d32cda83>@@@details@Napi@@YAPEAUnapi_value__@@V<lambda_4b130013be4a466940e6fe08d32cda83>@@@Z 0000000180025800     binding.obj
 0002:0000a818       $unwind$?catch$1@?0???$WrapCallback@V<lambda_4b130013be4a466940e6fe08d32cda83>@@@details@Napi@@YAPEAUnapi_value__@@V<lambda_4b130013be4a466940e6fe08d32cda83>@@@Z@4HA 0000000180025818     binding.obj
 0002:0000a828       xdata                      0000000180025828     node:node.exe
 0002:0000a830       $unwind$_raise_exc         0000000180025830     libucrt:fpexcept.obj
 0002:0000a830       $unwind$?_Xlength_error@std@@YAXPEBD@Z 0000000180025830     libcpmt:xthrow.obj
 0002:0000a830       $unwind$?__scrt_throw_std_bad_alloc@@YAXXZ 0000000180025830     LIBCMT:throw_bad_alloc.obj
 0002:0000a830       $unwind$?__scrt_throw_std_bad_array_new_length@@YAXXZ 0000000180025830     LIBCMT:throw_bad_alloc.obj
 0002:0000a838       $unwind$?__mbrtowc_utf8@__crt_mbstring@@YA_KPEA_WPEBD_KPEAU_Mbstatet@@@Z 0000000180025838     libucrt:mbrtowc.obj
 0002:0000a838       $unwind$??0length_error@std@@QEAA@PEBD@Z 0000000180025838     libcpmt:xthrow.obj
 0002:0000a840       $xdatasym                  0000000180025840     LIBCMT:amdsecgs.obj
 0002:0000a844       $unwind$?dllmain_crt_process_attach@@YAHQEAUHINSTANCE__@@QEAX@Z 0000000180025844     LIBCMT:dll_dllmain.obj
 0002:0000a880       $unwind$?dllmain_crt_process_detach@@YAH_N@Z 0000000180025880     LIBCMT:dll_dllmain.obj
 0002:0000a8b8       $unwind$?dllmain_dispatch@@YAHQEAUHINSTANCE__@@KQEAX@Z 00000001800258b8     LIBCMT:dll_dllmain.obj
 0002:0000a8e0       $unwind$?filt$0@?0??dllmain_dispatch@@YAHQEAUHINSTANCE__@@KQEAX@Z@4HA 00000001800258e0     LIBCMT:dll_dllmain.obj
 0002:0000a8e8       $unwind$?type_case_n@?$output_processor@DV?$string_output_adapter@D@__crt_stdio_output@@V?$format_validation_base@DV?$string_output_adapter@D@__crt_stdio_output@@@2@@__crt_stdio_output@@AEAA_NXZ 00000001800258e8     libucrt:output.obj
 0002:0000a8e8       $unwind$__acrt_getptd_noexit 00000001800258e8     libucrt:per_thread_data.obj
 0002:0000a8e8       $unwind$__vcrt_getptd_noexit 00000001800258e8     libvcruntime:per_thread_data.obj
 0002:0000a8e8       $unwind$_DllMainCRTStartup 00000001800258e8     LIBCMT:dll_dllmain.obj
 0002:0000a8e8       $unwind$??$common_lseek_nolock@_J@@YA_JH_JH@Z 00000001800258e8     libucrt:lseek.obj
 0002:0000a8e8       $unwind$__acrt_getptd      00000001800258e8     libucrt:per_thread_data.obj
 0002:0000a8e8       $unwind$__acrt_InitializeCriticalSectionEx 00000001800258e8     libucrt:winapi_thunks.obj
 0002:0000a8e8       $unwind$__acrt_stdio_flush_nolock 00000001800258e8     libucrt:fflush.obj
 0002:0000a8e8       $unwind$__vcrt_InitializeCriticalSectionEx 00000001800258e8     libvcruntime:winapi_downlevel.obj
 0002:0000a8e8       $unwind$?CatchTryBlock@__FrameHandler3@@SAPEBU_s_TryBlockMapEntry@@PEBU_s_FuncInfo@@H@Z 00000001800258e8     libvcruntime:risctrnsctrl.obj
 0002:0000a8e8       $unwind$memcpy_s           00000001800258e8     libucrt:cfout.obj
 0002:0000a8e8       $unwind$?FrameUnwindToEmptyState@__FrameHandler3@@SAXPEA_KPEAU_xDISPATCHER_CONTEXT@@PEBU_s_FuncInfo@@@Z 00000001800258e8     libvcruntime:risctrnsctrl.obj
 0002:0000a8e8       $unwind$_exception_enabled 00000001800258e8     libucrt:libm_error.obj
 0002:0000a8e8       $unwind$__acrt_execute_initializers 00000001800258e8     libucrt:shared_initialization.obj
 0002:0000a8e8       $unwind$??0_LocaleUpdate@@QEAA@QEAU__crt_locale_pointers@@@Z 00000001800258e8     libucrt:strtox.obj
 0002:0000a8e8       $unwind$?free_crt_array_internal@@YAXQEAPEBX_K@Z 00000001800258e8     libucrt:inittime.obj
 0002:0000a8f8       $unwind$__report_securityfailure 00000001800258f8     LIBCMT:gs_report.obj
 0002:0000a900       $unwind$__report_gsfailure 0000000180025900     LIBCMT:gs_report.obj
 0002:0000a908       $unwind$capture_current_context 0000000180025908     LIBCMT:gs_report.obj
 0002:0000a914       $unwind$capture_previous_context 0000000180025914     LIBCMT:gs_report.obj
 0002:0000a920       $unwind$__security_init_cookie 0000000180025920     LIBCMT:gs_support.obj
 0002:0000a92c       $unwind$__scrt_is_nonwritable_in_current_image 000000018002592c     LIBCMT:utility.obj
 0002:0000a94c       $unwind$__scrt_is_nonwritable_in_current_image$filt$0 000000018002594c     LIBCMT:utility.obj
 0002:0000a954       $unwind$__dcrt_lowio_ensure_console_output_initialized 0000000180025954     libucrt:initcon.obj
 0002:0000a954       $unwind$__scrt_initialize_onexit_tables 0000000180025954     LIBCMT:utility.obj
 0002:0000a954       $unwind$_isleadbyte_l      0000000180025954     libucrt:_wctype.obj
 0002:0000a954       $unwind$?getSystemCP@@YAHH@Z 0000000180025954     libucrt:mbctype.obj
 0002:0000a95c       $unwind$_initterm          000000018002595c     libucrt:initterm.obj
 0002:0000a95c       $unwind$?GetHandlerSearchState@__FrameHandler3@@SAHPEA_KPEAU_xDISPATCHER_CONTEXT@@PEBU_s_FuncInfo@@@Z 000000018002595c     libvcruntime:frame.obj
 0002:0000a95c       $unwind$?Is_bad_exception_allowed@@YAEPEBU_s_ESTypeList@@@Z 000000018002595c     libvcruntime:frame.obj
 0002:0000a95c       $unwind$_recalloc_base     000000018002595c     libucrt:recalloc.obj
 0002:0000a95c       $unwind$__acrt_lowio_create_handle_array 000000018002595c     libucrt:osfinfo.obj
 0002:0000a95c       $unwind$__acrt_free_locale 000000018002595c     libucrt:locale_refcounting.obj
 0002:0000a95c       $unwind$__scrt_dllmain_exception_filter 000000018002595c     LIBCMT:utility.obj
 0002:0000a95c       $unwind$??$ensure_buffer_is_big_enough@D@formatting_buffer@__crt_stdio_output@@QEAA_N_K@Z 000000018002595c     libucrt:output.obj
 0002:0000a95c       $unwind$_seh_filter_exe    000000018002595c     libucrt:exception_filter.obj
 0002:0000a95c       $unwind$?setSBCS@@YAXPEAU__crt_multibyte_data@@@Z 000000018002595c     libucrt:mbctype.obj
 0002:0000a970       $unwind$__scrt_fastfail    0000000180025970     LIBCMT:utility_desktop.obj
 0002:0000a980       $unwind$__isa_available_init 0000000180025980     LIBCMT:cpu_disp.obj
 0002:0000a990       $xdatasym                  0000000180025990     LIBCMT:guard_dispatch.obj
 0002:0000a994       $unwind$?GetEstablisherFrame@__FrameHandler3@@SAPEA_KPEA_KPEAU_xDISPATCHER_CONTEXT@@PEBU_s_FuncInfo@@0@Z 0000000180025994     libvcruntime:risctrnsctrl.obj
 0002:0000a9ac       $unwind$?UnwindNestedFrames@__FrameHandler3@@SAXPEA_KPEAUEHExceptionRecord@@PEAU_CONTEXT@@0PEAXPEBU_s_FuncInfo@@HHPEBU_s_HandlerType@@PEAU_xDISPATCHER_CONTEXT@@E@Z 00000001800259ac     libvcruntime:risctrnsctrl.obj
 0002:0000a9c0       $unwind$?GetRangeOfTrysToCheck@__FrameHandler3@@SA?AU?$pair@Viterator@TryBlockMap@__FrameHandler3@@V123@@std@@AEAVTryBlockMap@1@HH@Z 00000001800259c0     libvcruntime:risctrnsctrl.obj
 0002:0000a9d8       $unwind$__CxxFrameHandler3 00000001800259d8     libvcruntime:risctrnsctrl.obj
 0002:0000a9e8       $unwind$??$_CallSETranslator@V__FrameHandler3@@@@YAHPEAUEHExceptionRecord@@PEA_KPEAU_CONTEXT@@PEAU_xDISPATCHER_CONTEXT@@PEBU_s_FuncInfo@@K1@Z 00000001800259e8     libvcruntime:risctrnsctrl.obj
 0002:0000aa08       $unwind$?filt$0@?0???$_CallSETranslator@V__FrameHandler3@@@@YAHPEAUEHExceptionRecord@@PEA_KPEAU_CONTEXT@@PEAU_xDISPATCHER_CONTEXT@@PEBU_s_FuncInfo@@K1@Z@4HA 0000000180025a08     libvcruntime:risctrnsctrl.obj
 0002:0000aa14       $unwind$__DestructExceptionObject 0000000180025a14     libvcruntime:ehhelpers.obj
 0002:0000aa34       $unwind$_free_osfhnd       0000000180025a34     libucrt:osfinfo.obj
 0002:0000aa34       $unwind$__std_exception_copy 0000000180025a34     libvcruntime:std_exception.obj
 0002:0000aa48       $unwind$_CxxThrowException 0000000180025a48     libvcruntime:throw.obj
 0002:0000aa58       $unwind$__C_specific_handler 0000000180025a58     libvcruntime:riscchandler.obj
 0002:0000aa78       $xdatasym                  0000000180025a78     libvcruntime:memset.obj
 0002:0000aa88       $unwind$?FrameUnwindToState@__FrameHandler3@@SAXPEA_KPEAU_xDISPATCHER_CONTEXT@@PEBU_s_FuncInfo@@H@Z 0000000180025a88     libvcruntime:frame.obj
 0002:0000aad4       $unwind$?CxxCallCatchBlock@__FrameHandler3@@SAPEAXPEAU_EXCEPTION_RECORD@@@Z 0000000180025ad4     libvcruntime:frame.obj
 0002:0000ab10       $unwind$?fin$1@?0??CxxCallCatchBlock@__FrameHandler3@@SAPEAXPEAU_EXCEPTION_RECORD@@@Z@4HA 0000000180025b10     libvcruntime:frame.obj
 0002:0000ab1c       $unwind$?IsInExceptionSpec@@YAEPEAUEHExceptionRecord@@PEBU_s_ESTypeList@@@Z 0000000180025b1c     libvcruntime:frame.obj
 0002:0000ab1c       $unwind$?try_get_function@@YAPEAXW4function_id@?A0x391cf84c@@QEBDQEBW4module_id@2@2@Z 0000000180025b1c     libucrt:winapi_thunks.obj
 0002:0000ab1c       $unwind$?try_get_function@@YAPEAXW4function_id@?A0x14c33c87@@QEBDQEBW4module_id@2@2@Z 0000000180025b1c     libvcruntime:winapi_downlevel.obj
 0002:0000ab38       $unwind$??$__InternalCxxFrameHandler@V__FrameHandler3@@@@YA?AW4_EXCEPTION_DISPOSITION@@PEAUEHExceptionRecord@@PEA_KPEAU_CONTEXT@@PEAU_xDISPATCHER_CONTEXT@@PEBU_s_FuncInfo@@H1E@Z 0000000180025b38     libvcruntime:frame.obj
 0002:0000ab50       $unwind$?initialize_stdio_handles_nolock@@YAXXZ 0000000180025b50     libucrt:ioinit.obj
 0002:0000ab50       $unwind$__GSHandlerCheck_EH 0000000180025b50     LIBCMT:gshandlereh.obj
 0002:0000ab50       $unwind$__acrt_initialize_stdio 0000000180025b50     libucrt:_file.obj
 0002:0000ab50       $unwind$??$TypeMatchHelper@V__FrameHandler3@@@@YAHPEBU_s_HandlerType@@PEBU_s_CatchableType@@PEBU_s_ThrowInfo@@@Z 0000000180025b50     libvcruntime:frame.obj
 0002:0000ab68       $unwind$??$BuildCatchObjectHelperInternal@V__FrameHandler3@@@@YAHPEAUEHExceptionRecord@@PEAXPEBU_s_HandlerType@@PEBU_s_CatchableType@@@Z 0000000180025b68     libvcruntime:frame.obj
 0002:0000aba8       $unwind$??$BuildCatchObjectInternal@V__FrameHandler3@@@@YAXPEAUEHExceptionRecord@@PEAXPEBU_s_HandlerType@@PEBU_s_CatchableType@@@Z 0000000180025ba8     libvcruntime:frame.obj
 0002:0000abd4       $unwind$??$FindHandler@V__FrameHandler3@@@@YAXPEAUEHExceptionRecord@@PEA_KPEAU_CONTEXT@@PEAU_xDISPATCHER_CONTEXT@@PEBU_s_FuncInfo@@EH1@Z 0000000180025bd4     libvcruntime:frame.obj
 0002:0000abf0       $unwind$??$CatchIt@V__FrameHandler3@@@@YAXPEAUEHExceptionRecord@@PEA_KPEAU_CONTEXT@@PEAU_xDISPATCHER_CONTEXT@@PEBU_s_FuncInfo@@PEBU_s_HandlerType@@PEBU_s_CatchableType@@PEBU_s_TryBlockMapEntry@@H1EE@Z 0000000180025bf0     libvcruntime:frame.obj
 0002:0000ac08       $unwind$??$FindHandlerForForeignException@V__FrameHandler3@@@@YAXPEAUEHExceptionRecord@@PEA_KPEAU_CONTEXT@@PEAU_xDISPATCHER_CONTEXT@@PEBU_s_FuncInfo@@HH1@Z 0000000180025c08     libvcruntime:frame.obj
 0002:0000ac28       $xdatasym                  0000000180025c28     libvcruntime:notify.obj
 0002:0000ac34       $unwind$__vcrt_initialize_winapi_thunks 0000000180025c34     libvcruntime:winapi_downlevel.obj
 0002:0000ac34       $unwind$__acrt_initialize_winapi_thunks 0000000180025c34     libucrt:winapi_thunks.obj
 0002:0000ac3c       $unwind$__vcrt_uninitialize_winapi_thunks 0000000180025c3c     libvcruntime:winapi_downlevel.obj
 0002:0000ac48       $xdatasym                  0000000180025c48     libvcruntime:handlers.obj
 0002:0000ac58       $xdatasym                  0000000180025c58     libvcruntime:memcpy.obj
 0002:0000ac68       $unwind$_strtoui64         0000000180025c68     libucrt:strtox.obj
 0002:0000ac68       $unwind$wctomb_s           0000000180025c68     libucrt:wctomb.obj
 0002:0000ac68       $unwind$_strtoi64          0000000180025c68     libucrt:strtox.obj
 0002:0000ac68       $unwind$strtol             0000000180025c68     libucrt:strtox.obj
 0002:0000ac68       $unwind$_invalid_parameter_noinfo 0000000180025c68     libucrt:invalid_parameter.obj
 0002:0000ac68       $unwind$_invalid_parameter_noinfo_noreturn 0000000180025c68     libucrt:invalid_parameter.obj
 0002:0000ac68       $unwind$_log10_special     0000000180025c68     libucrt:log_special.obj
 0002:0000ac70       $unwind$??$parse_integer@_KV?$c_string_character_source@D@__crt_strtox@@@__crt_strtox@@YA_KQEAU__crt_locale_pointers@@V?$c_string_character_source@D@0@H_N@Z 0000000180025c70     libucrt:strtox.obj
 0002:0000ac70       $unwind$??$parse_integer@KV?$c_string_character_source@D@__crt_strtox@@@__crt_strtox@@YAKQEAU__crt_locale_pointers@@V?$c_string_character_source@D@0@H_N@Z 0000000180025c70     libucrt:strtox.obj
 0002:0000ac8c       $unwind$__stdio_common_vsnprintf_s 0000000180025c8c     libucrt:output.obj
 0002:0000aca4       $unwind$?write_string@?$string_output_adapter@D@__crt_stdio_output@@QEBAXQEBDHQEAHAEAV__crt_deferred_errno_cache@@@Z 0000000180025ca4     libucrt:output.obj
 0002:0000acbc       $unwind$??$common_vsprintf@Vformat_validation_base@__crt_stdio_output@@D@@YAH_KQEAD0QEBDQEAU__crt_locale_pointers@@1@Z 0000000180025cbc     libucrt:output.obj
 0002:0000acdc       $unwind$??$write_multiple_characters@V?$string_output_adapter@D@__crt_stdio_output@@D@__crt_stdio_output@@YAXAEBV?$string_output_adapter@D@0@DHQEAH@Z 0000000180025cdc     libucrt:output.obj
 0002:0000ace8       $unwind$?process@?$output_processor@DV?$string_output_adapter@D@__crt_stdio_output@@V?$format_validation_base@DV?$string_output_adapter@D@__crt_stdio_output@@@2@@__crt_stdio_output@@QEAAHXZ 0000000180025ce8     libucrt:output.obj
 0002:0000acfc       $unwind$?parse_int_from_format_string@?$output_processor@DV?$string_output_adapter@D@__crt_stdio_output@@V?$format_validation_base@DV?$string_output_adapter@D@__crt_stdio_output@@@2@@__crt_stdio_output@@AEAA_NQEAH@Z 0000000180025cfc     libucrt:output.obj
 0002:0000ad10       $unwind$?state_case_type@?$output_processor@DV?$string_output_adapter@D@__crt_stdio_output@@V?$format_validation_base@DV?$string_output_adapter@D@__crt_stdio_output@@@2@@__crt_stdio_output@@AEAA_NXZ 0000000180025d10     libucrt:output.obj
 0002:0000ad28       $unwind$?type_case_a@?$output_processor@DV?$string_output_adapter@D@__crt_stdio_output@@V?$format_validation_base@DV?$string_output_adapter@D@__crt_stdio_output@@@2@@__crt_stdio_output@@AEAA_NXZ 0000000180025d28     libucrt:output.obj
 0002:0000ad34       $unwind$??R<lambda_f03950bc5685219e0bcd2087efbe011e>@@QEBAHXZ 0000000180025d34     libucrt:onexit.obj
 0002:0000ad34       $unwind$?type_case_integer@?$output_processor@DV?$string_output_adapter@D@__crt_stdio_output@@V?$format_validation_base@DV?$string_output_adapter@D@__crt_stdio_output@@@2@@__crt_stdio_output@@AEAA_NI_N@Z 0000000180025d34     libucrt:output.obj
 0002:0000ad4c       $unwind$?write_stored_string_tchar@?$output_processor@DV?$string_output_adapter@D@__crt_stdio_output@@V?$format_validation_base@DV?$string_output_adapter@D@__crt_stdio_output@@@2@@__crt_stdio_output@@AEAA_ND@Z 0000000180025d4c     libucrt:output.obj
 0002:0000ad64       $unwind$??$type_case_integer_parse_into_buffer@_K@?$output_processor@DV?$string_output_adapter@D@__crt_stdio_output@@V?$format_validation_base@DV?$string_output_adapter@D@__crt_stdio_output@@@2@@__crt_stdio_output@@AEAAX_KI_N@Z 0000000180025d64     libucrt:output.obj
 0002:0000ad64       $unwind$??$type_case_integer_parse_into_buffer@I@?$output_processor@DV?$string_output_adapter@D@__crt_stdio_output@@V?$format_validation_base@DV?$string_output_adapter@D@__crt_stdio_output@@@2@@__crt_stdio_output@@AEAAXII_N@Z 0000000180025d64     libucrt:output.obj
 0002:0000ad6c       $unwind$strerror           0000000180025d6c     libucrt:strerror.obj
 0002:0000ad78       $unwind$__acrt_call_reportfault 0000000180025d78     libucrt:invalid_parameter.obj
 0002:0000ad98       $unwind$_invalid_parameter 0000000180025d98     libucrt:invalid_parameter.obj
 0002:0000adac       $unwind$?x_ismbbtype_l@@YAHPEAU__crt_locale_pointers@@IHH@Z 0000000180025dac     libucrt:ismbbyte.obj
 0002:0000adac       $unwind$_stricmp_l         0000000180025dac     libucrt:stricmp.obj
 0002:0000adbc       $unwind$_query_new_handler 0000000180025dbc     libucrt:new_handler.obj
 0002:0000addc       $unwind$?common_exit@@YAXHW4_crt_exit_cleanup_mode@@W4_crt_exit_return_mode@@@Z 0000000180025ddc     libucrt:exit.obj
 0002:0000ade8       $unwind$??R<lambda_6e4b09c48022b2350581041d5f6b0c4c>@@QEBA@XZ 0000000180025de8     libucrt:exit.obj
 0002:0000ae08       $unwind$??$?RV<lambda_d80eeec6fff315bfe5c115232f3240e3>@@AEAV<lambda_6e4b09c48022b2350581041d5f6b0c4c>@@V<lambda_2358e3775559c9db80273638284d5e45>@@@?$__crt_seh_guarded_call@X@@QEAAX$$QEAV<lambda_d80eeec6fff315bfe5c115232f3240e3>@@AEAV<lambda_6e4b09c48022b2350581041d5f6b0c4c>@@$$QEAV<lambda_2358e3775559c9db80273638284d5e45>@@@Z 0000000180025e08     libucrt:exit.obj
 0002:0000ae2c       $unwind$_configure_narrow_argv 0000000180025e2c     libucrt:argv_parsing.obj
 0002:0000ae40       $unwind$??$parse_command_line@D@@YAXPEADPEAPEAD0PEA_K2@Z 0000000180025e40     libucrt:argv_parsing.obj
 0002:0000ae5c       $unwind$??$free_environment@D@@YAXQEAPEAD@Z 0000000180025e5c     libucrt:environment_initialization.obj
 0002:0000ae5c       $unwind$??$free_environment@_W@@YAXQEAPEA_W@Z 0000000180025e5c     libucrt:environment_initialization.obj
 0002:0000ae68       $unwind$??$create_environment@D@@YAQEAPEADQEAD@Z 0000000180025e68     libucrt:environment_initialization.obj
 0002:0000ae80       $unwind$_execute_onexit_table 0000000180025e80     libucrt:onexit.obj
 0002:0000ae88       $unwind$??$?RV<lambda_7777bce6b2f8c936911f934f8298dc43>@@AEAV<lambda_f03950bc5685219e0bcd2087efbe011e>@@V<lambda_3883c3dff614d5e0c5f61bb1ac94921c>@@@?$__crt_seh_guarded_call@H@@QEAAH$$QEAV<lambda_7777bce6b2f8c936911f934f8298dc43>@@AEAV<lambda_f03950bc5685219e0bcd2087efbe011e>@@$$QEAV<lambda_3883c3dff614d5e0c5f61bb1ac94921c>@@@Z 0000000180025e88     libucrt:onexit.obj
 0002:0000aeac       $unwind$terminate          0000000180025eac     libucrt:terminate.obj
 0002:0000aed0       $xdatasym                  0000000180025ed0     libucrt:strncmp.obj
 0002:0000aed4       $unwind$_isctype_l         0000000180025ed4     libucrt:isctype.obj
 0002:0000aef0       $unwind$_free_base         0000000180025ef0     libucrt:free_base.obj
 0002:0000aef0       $unwind$?destroy_fls@@YAXPEAX@Z 0000000180025ef0     libucrt:per_thread_data.obj
 0002:0000aef0       $unwind$__acrt_locale_free_lc_time_if_unreferenced 0000000180025ef0     libucrt:locale_refcounting.obj
 0002:0000aef0       $unwind$__acrt_locale_free_numeric 0000000180025ef0     libucrt:initnum.obj
 0002:0000aef8       $unwind$?construct_ptd_array@@YAXQEAU__acrt_ptd@@@Z 0000000180025ef8     libucrt:per_thread_data.obj
 0002:0000af00       $unwind$?destroy_ptd_array@@YAXQEAU__acrt_ptd@@@Z 0000000180025f00     libucrt:per_thread_data.obj
 0002:0000af08       $unwind$??$?RV<lambda_0ae27a3a962d80f24befdcbee591983d>@@AEAV<lambda_8d0ee55de4b1038c4002e0adecdf1839>@@V<lambda_dc504788e8f1664fe9b84e20bfb512f2>@@@?$__crt_seh_guarded_call@X@@QEAAX$$QEAV<lambda_0ae27a3a962d80f24befdcbee591983d>@@AEAV<lambda_8d0ee55de4b1038c4002e0adecdf1839>@@$$QEAV<lambda_dc504788e8f1664fe9b84e20bfb512f2>@@@Z 0000000180025f08     libucrt:per_thread_data.obj
 0002:0000af2c       $unwind$??$?RV<lambda_aa87e3671a710a21b5dc78c0bdf72e11>@@AEAV<lambda_92619d2358a28f41a33ba319515a20b9>@@V<lambda_6992ecaafeb10aed2b74cb1fae11a551>@@@?$__crt_seh_guarded_call@X@@QEAAX$$QEAV<lambda_aa87e3671a710a21b5dc78c0bdf72e11>@@AEAV<lambda_92619d2358a28f41a33ba319515a20b9>@@$$QEAV<lambda_6992ecaafeb10aed2b74cb1fae11a551>@@@Z 0000000180025f2c     libucrt:per_thread_data.obj
 0002:0000af50       $unwind$??$?RV<lambda_f2e299630e499de9f9a165e60fcd3db5>@@AEAV<lambda_2ae9d31cdba2644fcbeaf08da7c24588>@@V<lambda_40d01ff24d0e7b3814fdbdcee8eab3c7>@@@?$__crt_seh_guarded_call@X@@QEAAX$$QEAV<lambda_f2e299630e499de9f9a165e60fcd3db5>@@AEAV<lambda_2ae9d31cdba2644fcbeaf08da7c24588>@@$$QEAV<lambda_40d01ff24d0e7b3814fdbdcee8eab3c7>@@@Z 0000000180025f50     libucrt:per_thread_data.obj
 0002:0000af74       $unwind$??$?RV<lambda_2d41944a1d46af3157314b8a01080d33>@@AEAV<lambda_8f455de75cd7d7f24b4096f044d8b9e6>@@V<lambda_aa500f224e6afead328df44964fe2772>@@@?$__crt_seh_guarded_call@X@@QEAAX$$QEAV<lambda_2d41944a1d46af3157314b8a01080d33>@@AEAV<lambda_8f455de75cd7d7f24b4096f044d8b9e6>@@$$QEAV<lambda_aa500f224e6afead328df44964fe2772>@@@Z 0000000180025f74     libucrt:per_thread_data.obj
 0002:0000af98       $unwind$__acrt_get_sigabrt_handler 0000000180025f98     libucrt:signal.obj
 0002:0000af98       $unwind$__acrt_uninitialize_locale 0000000180025f98     libucrt:wsetlocale.obj
 0002:0000afa0       $unwind$??$?RV<lambda_410d79af7f07d98d83a3f525b3859a53>@@AEAV<lambda_3e16ef9562a7dcce91392c22ab16ea36>@@V<lambda_38119f0e861e05405d8a144b9b982f0a>@@@?$__crt_seh_guarded_call@X@@QEAAX$$QEAV<lambda_410d79af7f07d98d83a3f525b3859a53>@@AEAV<lambda_3e16ef9562a7dcce91392c22ab16ea36>@@$$QEAV<lambda_38119f0e861e05405d8a144b9b982f0a>@@@Z 0000000180025fa0     libucrt:wsetlocale.obj
 0002:0000afc8       $unwind$isdigit            0000000180025fc8     libucrt:_ctype.obj
 0002:0000afc8       $unwind$_mbsdec_l          0000000180025fc8     libucrt:mbsdec.obj
 0002:0000afd4       $unwind$_tolower_l         0000000180025fd4     libucrt:tolower_toupper.obj
 0002:0000afe4       $unwind$?fp_format_e@@YAHQEBNQEAD_K12H_NIQEAU__crt_locale_pointers@@@Z 0000000180025fe4     libucrt:cvt.obj
 0002:0000afe4       $unwind$__acrt_LCMapStringEx 0000000180025fe4     libucrt:winapi_thunks.obj
 0002:0000afe4       $unwind$_mbtowc_l          0000000180025fe4     libucrt:mbtowc.obj
 0002:0000aff8       $unwind$_wctomb_s_l        0000000180025ff8     libucrt:wctomb.obj
 0002:0000b008       $unwind$__acrt_fp_format   0000000180026008     libucrt:cvt.obj
 0002:0000b01c       $unwind$?fp_format_nan_or_infinity@@YAHW4__acrt_fp_class@@_NPEAD_K1@Z 000000018002601c     libucrt:cvt.obj
 0002:0000b030       $unwind$?fp_format_e_internal@@YAHQEAD_KH_NIQEAU_strflt@@2QEAU__crt_locale_pointers@@@Z 0000000180026030     libucrt:cvt.obj
 0002:0000b048       $unwind$?fp_format_a@@YAHQEBNPEAD_KQEAD2H_NIQEAU__crt_locale_pointers@@@Z 0000000180026048     libucrt:cvt.obj
 0002:0000b064       $unwind$__dcrt_get_narrow_environment_from_os 0000000180026064     libucrt:get_environment_from_os.obj
 0002:0000b064       $unwind$?fp_format_f_internal@@YAHQEAD_KHQEAU_strflt@@_NQEAU__crt_locale_pointers@@@Z 0000000180026064     libucrt:cvt.obj
 0002:0000b064       $unwind$??$__acrt_wcs_to_mbs_cp@U__crt_win32_buffer_internal_dynamic_resizing@@@@YAHQEB_WAEAV?$__crt_win32_buffer@DU__crt_win32_buffer_internal_dynamic_resizing@@@@I@Z 0000000180026064     libucrt:argv_wildcards.obj
 0002:0000b07c       $unwind$?fp_format_g@@YAHQEBNQEAD_K12H_NIQEAU__crt_locale_pointers@@@Z 000000018002607c     libucrt:cvt.obj
 0002:0000b090       $unwind$__acrt_initialize_lowio 0000000180026090     libucrt:ioinit.obj
 0002:0000b0b0       $unwind$?initialize_inherited_file_handles_nolock@@YAXXZ 00000001800260b0     libucrt:ioinit.obj
 0002:0000b0cc       $unwind$??$__acrt_mbs_to_wcs_cp@U__crt_win32_buffer_internal_dynamic_resizing@@@@YAHQEBDAEAV?$__crt_win32_buffer@_WU__crt_win32_buffer_internal_dynamic_resizing@@@@I@Z 00000001800260cc     libucrt:argv_wildcards.obj
 0002:0000b0e4       $unwind$??$common_expand_argv_wildcards@D@@YAHQEAPEADQEAPEAPEAD@Z 00000001800260e4     libucrt:argv_wildcards.obj
 0002:0000b0fc       $unwind$??$copy_and_add_argument_to_buffer@D@@YAHQEBD0_KAEAV?$argument_list@D@?A0x5f5c8891@@@Z 00000001800260fc     libucrt:argv_wildcards.obj
 0002:0000b118       $unwind$??$expand_argument_wildcards@D@@YAHQEAD0AEAV?$argument_list@D@?A0x5f5c8891@@@Z 0000000180026118     libucrt:argv_wildcards.obj
 0002:0000b13c       $unwind$__acrt_GetModuleFileNameA 000000018002613c     libucrt:getmodulefilenamea.obj
 0002:0000b158       $unwind$??$__acrt_wcs_to_mbs_cp@U__crt_win32_buffer_no_resizing@@@@YAHQEB_WAEAV?$__crt_win32_buffer@DU__crt_win32_buffer_no_resizing@@@@I@Z 0000000180026158     libucrt:getmodulefilenamea.obj
 0002:0000b158       $unwind$__dcrt_write_console 0000000180026158     libucrt:initcon.obj
 0002:0000b16c       $unwind$_setmbcp_nolock    000000018002616c     libucrt:mbctype.obj
 0002:0000b18c       $unwind$?update_thread_multibyte_data_internal@@YAPEAU__crt_multibyte_data@@QEAU__acrt_ptd@@QEAPEAU1@@Z 000000018002618c     libucrt:mbctype.obj
 0002:0000b1b4       $unwind$?setmbcp_internal@@YAHH_NQEAU__acrt_ptd@@QEAPEAU__crt_multibyte_data@@@Z 00000001800261b4     libucrt:mbctype.obj
 0002:0000b1c4       $unwind$?setSBUpLow@@YAXPEAU__crt_multibyte_data@@@Z 00000001800261c4     libucrt:mbctype.obj
 0002:0000b1e0       $unwind$??$?RV<lambda_efdfa57d1f175319df784efa44bb7b81>@@AEAV<lambda_5f0a4c1567f8adc6734073e5d1e1b35c>@@V<lambda_2e8a7d3640ea6ccb4c2413664c2db6fd>@@@?$__crt_seh_guarded_call@X@@QEAAX$$QEAV<lambda_efdfa57d1f175319df784efa44bb7b81>@@AEAV<lambda_5f0a4c1567f8adc6734073e5d1e1b35c>@@$$QEAV<lambda_2e8a7d3640ea6ccb4c2413664c2db6fd>@@@Z 00000001800261e0     libucrt:mbctype.obj
 0002:0000b204       $unwind$__GSHandlerCheckCommon 0000000180026204     LIBCMT:gshandler.obj
 0002:0000b204       $unwind$__acrt_WideCharToMultiByte 0000000180026204     libucrt:widechartomultibyte.obj
 0002:0000b20c       $unwind$raise              000000018002620c     libucrt:signal.obj
 0002:0000b248       $unwind$??$?RV<lambda_450d765d439847d4c735a33c368b5fc0>@@AEAV<lambda_44731a7d0e6d81c3e6aa82d741081786>@@V<lambda_601a2a7da3b7a96e9554ac7215c4b07c>@@@?$__crt_seh_guarded_call@P6AXH@Z@@QEAAP6AXH@Z$$QEAV<lambda_450d765d439847d4c735a33c368b5fc0>@@AEAV<lambda_44731a7d0e6d81c3e6aa82d741081786>@@$$QEAV<lambda_601a2a7da3b7a96e9554ac7215c4b07c>@@@Z 0000000180026248     libucrt:signal.obj
 0002:0000b26c       $unwind$?common_flush_all@@YAH_N@Z 000000018002626c     libucrt:fflush.obj
 0002:0000b274       $unwind$??$?RV<lambda_842d9ff0dc9ef11c61343bbaebe7f885>@@AEAV<lambda_c5860995281e5c4ce005b3de8f5874ee>@@V<lambda_d90129c13df834fdcbf8d2b88dafcf2d>@@@?$__crt_seh_guarded_call@X@@QEAAX$$QEAV<lambda_842d9ff0dc9ef11c61343bbaebe7f885>@@AEAV<lambda_c5860995281e5c4ce005b3de8f5874ee>@@$$QEAV<lambda_d90129c13df834fdcbf8d2b88dafcf2d>@@@Z 0000000180026274     libucrt:fflush.obj
 0002:0000b298       $unwind$??$?RV<lambda_886d6c58226a84441f68b9f2b8217b83>@@AEAV<lambda_ab61a845afdef5b7c387490eaf3616ee>@@V<lambda_f7f22ab5edc0698d5f6905b0d3f44752>@@@?$__crt_seh_guarded_call@X@@QEAAX$$QEAV<lambda_886d6c58226a84441f68b9f2b8217b83>@@AEAV<lambda_ab61a845afdef5b7c387490eaf3616ee>@@$$QEAV<lambda_f7f22ab5edc0698d5f6905b0d3f44752>@@@Z 0000000180026298     libucrt:fflush.obj
 0002:0000b2c0       $unwind$__acrt_GetStringTypeA 00000001800262c0     libucrt:getstringtypea.obj
 0002:0000b2e8       $unwind$__acrt_update_thread_locale_data 00000001800262e8     libucrt:locale_refcounting.obj
 0002:0000b30c       $unwind$__acrt_locale_free_monetary 000000018002630c     libucrt:initmon.obj
 0002:0000b314       $unwind$__acrt_locale_free_time 0000000180026314     libucrt:inittime.obj
 0002:0000b324       $unwind$__acrt_LCMapStringA 0000000180026324     libucrt:lcmapstringa.obj
 0002:0000b334       $unwind$?__acrt_LCMapStringA_stat@@YAHPEAU__crt_locale_pointers@@PEB_WKPEBDHPEADHHH@Z 0000000180026334     libucrt:lcmapstringa.obj
 0002:0000b35c       $unwind$?__mbsrtowcs_utf8@__crt_mbstring@@YA_KPEA_WPEAPEBD_KPEAU_Mbstatet@@@Z 000000018002635c     libucrt:mbrtowc.obj
 0002:0000b374       $unwind$__acrt_fltout      0000000180026374     libucrt:cfout.obj
 0002:0000b394       $unwind$?divide@__crt_strtox@@YA_KAEAUbig_integer@1@AEBU21@@Z 0000000180026394     libucrt:cfout.obj
 0002:0000b3ac       $chain$0$?divide@__crt_strtox@@YA_KAEAUbig_integer@1@AEBU21@@Z 00000001800263ac     libucrt:cfout.obj
 0002:0000b3c0       $chain$1$?divide@__crt_strtox@@YA_KAEAUbig_integer@1@AEBU21@@Z 00000001800263c0     libucrt:cfout.obj
 0002:0000b3d0       $unwind$_fcloseall         00000001800263d0     libucrt:closeall.obj
 0002:0000b3f4       $unwind$__acrt_lowio_destroy_handle_array 00000001800263f4     libucrt:osfinfo.obj
 0002:0000b404       $unwind$__acrt_lowio_ensure_fh_exists 0000000180026404     libucrt:osfinfo.obj
 0002:0000b430       $unwind$qsort              0000000180026430     libucrt:qsort.obj
 0002:0000b448       $chain$4$qsort             0000000180026448     libucrt:qsort.obj
 0002:0000b46c       $chain$5$qsort             000000018002646c     libucrt:qsort.obj
 0002:0000b47c       $unwind$strpbrk            000000018002647c     libucrt:strpbrk.obj
 0002:0000b48c       $unwind$fallbackMethod     000000018002648c     libucrt:strpbrk.obj
 0002:0000b49c       $unwind$?GetTableIndexFromLocaleName@@YAHPEB_W@Z 000000018002649c     libucrt:lcidtoname_downlevel.obj
 0002:0000b4b4       $unwind$_close             00000001800264b4     libucrt:close.obj
 0002:0000b4b4       $unwind$_commit            00000001800264b4     libucrt:commit.obj
 0002:0000b4bc       $unwind$??$?RV<lambda_a37b2b86f63e897a80ea819b0eb08c01>@@AEAV<lambda_38ce7e780aa69e748d6df282ebc68efe>@@V<lambda_99fb1378e971ab6e7edea83e3a7a83a2>@@@?$__crt_seh_guarded_call@H@@QEAAH$$QEAV<lambda_a37b2b86f63e897a80ea819b0eb08c01>@@AEAV<lambda_38ce7e780aa69e748d6df282ebc68efe>@@$$QEAV<lambda_99fb1378e971ab6e7edea83e3a7a83a2>@@@Z 00000001800264bc     libucrt:commit.obj
 0002:0000b4e0       $unwind$_write             00000001800264e0     libucrt:write.obj
 0002:0000b510       $unwind$_write_nolock      0000000180026510     libucrt:write.obj
 0002:0000b528       $unwind$?write_double_translated_ansi_nolock@@YA?AUwrite_result@?A0x17268360@@HQEBDI@Z 0000000180026528     libucrt:write.obj
 0002:0000b54c       $unwind$?write_text_utf16le_nolock@@YA?AUwrite_result@?A0x17268360@@HQEBDI@Z 000000018002654c     libucrt:write.obj
 0002:0000b54c       $unwind$?write_text_ansi_nolock@@YA?AUwrite_result@?A0x17268360@@HQEBDI@Z 000000018002654c     libucrt:write.obj
 0002:0000b56c       $unwind$?write_text_utf8_nolock@@YA?AUwrite_result@?A0x17268360@@HQEBDI@Z 000000018002656c     libucrt:write.obj
 0002:0000b590       $unwind$?__mbrtoc32_utf8@__crt_mbstring@@YA_KPEA_UPEBD_KPEAU_Mbstatet@@@Z 0000000180026590     libucrt:mbrtoc32.obj
 0002:0000b5b0       $xdatasym                  00000001800265b0     libucrt:log10.obj
 0002:0000b5bc       $unwind$fclose             00000001800265bc     libucrt:fclose.obj
 0002:0000b5e0       $unwind$_putwch_nolock     00000001800265e0     libucrt:putwch.obj
 0002:0000b5e8       $unwind$__acrt_fenv_set_control 00000001800265e8     libucrt:_fenvutils.obj
 0002:0000b5f8       $unwind$_call_matherr      00000001800265f8     libucrt:libm_error.obj
 0002:0000b600       $unwind$_handle_error      0000000180026600     libucrt:libm_error.obj
 0002:0000b620       $unwind$__acrt_initialize_fma3 0000000180026620     libucrt:fma3_available.obj
 0002:0000b628       $unwind$_log_special_common 0000000180026628     libucrt:log_special.obj
 0002:0000b634       $unwind$??$?RV<lambda_751a882b2c74d4b022dec766aa51a29a>@@AEAV<lambda_628dfdc04ba53c8bfc02c9951375f3f5>@@V<lambda_f6c7be5f7998530c34de24c7437d6b54>@@@?$__crt_seh_guarded_call@H@@QEAAH$$QEAV<lambda_751a882b2c74d4b022dec766aa51a29a>@@AEAV<lambda_628dfdc04ba53c8bfc02c9951375f3f5>@@$$QEAV<lambda_f6c7be5f7998530c34de24c7437d6b54>@@@Z 0000000180026634     libucrt:close.obj
 0002:0000b658       $xdatasym                  0000000180026658     libucrt:fpsr.obj
 0002:0000b660       $unwind$_raise_exc_ex      0000000180026660     libucrt:fpexcept.obj
 0002:0000b674       $unwind$_ctrlfp            0000000180026674     libucrt:fpctrl.obj
 0002:0000b69c       $unwind$?DloadObtainSection@@YAPEAXPEAK0@Z 000000018002669c     DelayImp:delayhlp.obj
 0002:0000b6ac       $unwind$?DloadMakePermanentImageCommit@@YAXPEAX_K@Z 00000001800266ac     DelayImp:delayhlp.obj
 0002:0000b6b8       $unwind$?DloadProtectSection@@YAXKPEAK@Z 00000001800266b8     DelayImp:delayhlp.obj
 0002:0000b6c8       $unwind$__delayLoadHelper2 00000001800266c8     DelayImp:delayhlp.obj
 0002:0000b6e0       $unwind$_IsNonwritableInCurrentImage 00000001800266e0     LIBCMT:pesect.obj
 0002:0000b708       $xdatasym                  0000000180026708     LIBCMT:chkstk.obj
 0002:0000b710       $xdatasym                  0000000180026710     libvcruntime:memcmp.obj
 0002:0000b714       $unwind$strrchr            0000000180026714     libvcruntime:strrchr.obj
 0002:0000c0a0       .edata                     00000001800270a0     binding.exp
 0002:0000c0c8       rgpv                       00000001800270c8     binding.exp
 0002:0000c0cc       rgszName                   00000001800270cc     binding.exp
 0002:0000c0d0       rgwOrd                     00000001800270d0     binding.exp
 0002:0000c0d2       szName                     00000001800270d2     binding.exp
 0002:0000c0df       $N00001                    00000001800270df     binding.exp
 0002:0000c384       .idata$6                   0000000180027384     kernel32:KERNEL32.dll
 0003:00000030       ?__vcrt_flsindex@@3KA      0000000180028030     libvcruntime:per_thread_data.obj
 0003:00000040       ?errno_no_memory@@3HA      0000000180028040     libucrt:errno.obj
 0003:00000044       ?doserrno_no_memory@@3KA   0000000180028044     libucrt:errno.obj
 0003:00000050       ?__acrt_flsindex@@3KA      0000000180028050     libucrt:per_thread_data.obj
 0003:000002e0       _mbctypes                  00000001800282e0     libucrt:mbctype.obj
 0003:000003f0       _mbcasemaps                00000001800283f0     libucrt:mbctype.obj
 0003:000004f0       ?__rgctypeflag@@3PADA      00000001800284f0     libucrt:mbctype.obj
 0003:00000500       ?__rgcode_page_info@@3PAUcode_page_info@@A 0000000180028500     libucrt:mbctype.obj
 0003:000009c0       ?__dcrt_lowio_console_output_handle@@3PEAXEA 00000001800289c0     libucrt:initcon.obj
 0003:000009d0       ?dazSupported@?1??_ctrlfp@@9@9 00000001800289d0     libucrt:fpctrl.obj
 0003:000009f0       _module                    00000001800289f0     binding.obj
 0003:00000d68       ?__proc_attached@@3HA      0000000180028d68     LIBCMT:dll_dllmain.obj
 0003:00000d70       GS_ExceptionRecord         0000000180028d70     LIBCMT:gs_report.obj
 0003:00000e10       GS_ContextRecord           0000000180028e10     LIBCMT:gs_report.obj
 0003:00001308       ?is_initialized_as_dll@@3_NA 0000000180029308     LIBCMT:utility.obj
 0003:00001309       ?module_local_atexit_table_initialized@@3_NA 0000000180029309     LIBCMT:utility.obj
 0003:00001310       ?module_local_atexit_table@@3U_onexit_table_t@@A 0000000180029310     LIBCMT:utility.obj
 0003:00001328       ?module_local_at_quick_exit_table@@3U_onexit_table_t@@A 0000000180029328     LIBCMT:utility.obj
 0003:00001350       ?__vcrt_startup_thread_ptd@@3U__vcrt_ptd@@A 0000000180029350     libvcruntime:per_thread_data.obj
 0003:00001420       ?heap@@3V_HeapManager@@A   0000000180029420     libvcruntime:undname.obj
 0003:00001448       __vcrt_lock_table          0000000180029448     libvcruntime:locks.obj
 0003:00001470       __vcrt_locks_initialized   0000000180029470     libvcruntime:locks.obj
 0003:00001478       ?module_handles@@3PAPEAUHINSTANCE__@@A 0000000180029478     libvcruntime:winapi_downlevel.obj
 0003:00001490       ?encoded_function_pointers@@3PAPEAXA 0000000180029490     libvcruntime:winapi_downlevel.obj
 0003:000014c0       ?__acrt_invalid_parameter_handler@@3V?$dual_state_global@P6AXPEB_W00I_K@Z@__crt_state_management@@A 00000001800294c0     libucrt:invalid_parameter.obj
 0003:000014c8       ?__acrt_new_handler@@3V?$dual_state_global@P6AH_K@Z@__crt_state_management@@A 00000001800294c8     libucrt:new_handler.obj
 0003:000014d0       ?c_termination_complete@@3JA 00000001800294d0     libucrt:exit.obj
 0003:000014d8       ?thread_local_exit_callback_func@@3P6AXPEAXK0@ZEA 00000001800294d8     libucrt:exit.obj
 0003:000014f0       ?program_name@?1???$common_configure_argv@D@@YAHW4_crt_argv_mode@@@Z@4PADA 00000001800294f0     libucrt:argv_parsing.obj
 0003:00001658       ?internal_state@?1??_mbtowc_l@@9@4U_Mbstatet@@A 0000000180029658     libucrt:mbtowc.obj
 0003:00001670       ?enable_percent_n@@3_KA    0000000180029670     libucrt:printf_count_output.obj
 0003:00001aa0       ?__acrt_lock_table@@3PAU_RTL_CRITICAL_SECTION@@A 0000000180029aa0     libucrt:locks.obj
 0003:00001cd0       ?__acrt_locks_initialized@@3IA 0000000180029cd0     libucrt:locks.obj
 0003:00001cf0       ?fSystemSet@@3HA           0000000180029cf0     libucrt:mbctype.obj
 0003:00001cf4       ?initialized@?1??__acrt_initialize_multibyte@@9@4_NA 0000000180029cf4     libucrt:mbctype.obj
 0003:00001d30       ?module_handles@@3PAPEAUHINSTANCE__@@A 0000000180029d30     libucrt:winapi_thunks.obj
 0003:00001dd0       ?encoded_function_pointers@@3PAPEAXA 0000000180029dd0     libucrt:winapi_thunks.obj
 0003:00001ee8       ?ctrlc_action@@3V?$dual_state_global@P6AXH@Z@__crt_state_management@@A 0000000180029ee8     libucrt:signal.obj
 0003:00001ef0       ?ctrlbreak_action@@3V?$dual_state_global@P6AXH@Z@__crt_state_management@@A 0000000180029ef0     libucrt:signal.obj
 0003:00001ef8       ?abort_action@@3V?$dual_state_global@P6AXH@Z@__crt_state_management@@A 0000000180029ef8     libucrt:signal.obj
 0003:00001f00       ?term_action@@3V?$dual_state_global@P6AXH@Z@__crt_state_management@@A 0000000180029f00     libucrt:signal.obj
 0003:00001f08       ?user_matherr@@3V?$dual_state_global@P6AHPEAU_exception@@@Z@__crt_state_management@@A 0000000180029f08     libucrt:matherr.obj
 0003:00001f18       ?__acrt_global_new_mode@@3V?$dual_state_global@J@__crt_state_management@@A 0000000180029f18     libucrt:new_mode.obj
 0003:00001f20       ?internal_pst@?1??__mbrtoc32_utf8@__crt_mbstring@@YA_KPEA_UPEBD_KPEAU_Mbstatet@@@Z@4U3@A 0000000180029f20     libucrt:mbrtoc32.obj
 0003:00001f28       ?__acrt_app_type@@3W4_crt_app_type@@A 0000000180029f28     libucrt:report_runtime_error.obj
 0004:00000000       $pdata$??_Gexception@stdext@@UEAAPEAXI@Z 000000018002a000     binding.obj
 0004:0000000c       $pdata$_snprintf_s         000000018002a00c     binding.obj
 0004:00000018       $pdata$??1Error@Napi@@UEAA@XZ 000000018002a018     binding.obj
 0004:00000024       $pdata$?Type@Value@Napi@@QEBA?AW4napi_valuetype@@XZ 000000018002a024     binding.obj
 0004:00000030       $pdata$?New@Number@Napi@@SA?AV12@PEAUnapi_env__@@N@Z 000000018002a030     binding.obj
 0004:0000003c       $pdata$??BString@Napi@@QEBA?AV?$basic_string@DU?$char_traits@D@std@@V?$allocator@D@2@@std@@XZ 000000018002a03c     binding.obj
 0004:00000048       $pdata$??AObject@Napi@@QEAA?AV?$PropertyLValue@V?$basic_string@DU?$char_traits@D@std@@V?$allocator@D@2@@std@@@01@PEBD@Z 000000018002a048     binding.obj
 0004:00000054       $pdata$??1?$PropertyLValue@V?$basic_string@DU?$char_traits@D@std@@V?$allocator@D@2@@std@@@Object@Napi@@QEAA@XZ 000000018002a054     binding.obj
 0004:00000060       $pdata$?New@Error@Napi@@SA?AV12@PEAUnapi_env__@@@Z 000000018002a060     binding.obj
 0004:0000006c       $pdata$0$?New@Error@Napi@@SA?AV12@PEAUnapi_env__@@@Z 000000018002a06c     binding.obj
 0004:00000078       $pdata$1$?New@Error@Napi@@SA?AV12@PEAUnapi_env__@@@Z 000000018002a078     binding.obj
 0004:00000084       $pdata$?New@Error@Napi@@SA?AV12@PEAUnapi_env__@@PEBD@Z 000000018002a084     binding.obj
 0004:00000090       $pdata$??_GTypeError@Napi@@UEAAPEAXI@Z 000000018002a090     binding.obj
 0004:00000090       $pdata$??_GError@Napi@@UEAAPEAXI@Z 000000018002a090     binding.obj
 0004:0000009c       $pdata$??0Error@Napi@@QEAA@AEBV01@@Z 000000018002a09c     binding.obj
 0004:000000a8       $pdata$?Message@Error@Napi@@QEBAAEBV?$basic_string@DU?$char_traits@D@std@@V?$allocator@D@2@@std@@XZ 000000018002a0a8     binding.obj
 0004:000000b4       $pdata$?ThrowAsJavaScriptException@Error@Napi@@QEBAXXZ 000000018002a0b4     binding.obj
 0004:000000c0       $pdata$?what@Error@Napi@@UEBAPEBDXZ 000000018002a0c0     binding.obj
 0004:000000cc       $pdata$?New@TypeError@Napi@@SA?AV12@PEAUnapi_env__@@PEBD@Z 000000018002a0cc     binding.obj
 0004:000000d8       $pdata$??0ObjectReference@Napi@@IEAA@AEBV01@@Z 000000018002a0d8     binding.obj
 0004:000000e4       $pdata$??0CallbackInfo@Napi@@QEAA@PEAUnapi_env__@@PEAUnapi_callback_info__@@@Z 000000018002a0e4     binding.obj
 0004:000000f0       $pdata$??ACallbackInfo@Napi@@QEBA?BVValue@1@_K@Z 000000018002a0f0     binding.obj
 0004:000000fc       $pdata$?AddressForArgs@?A0x89cbbd6c@@YAPEADAEBVCallbackInfo@Napi@@_K@Z 000000018002a0fc     binding.obj
 0004:00000108       $pdata$1$?AddressForArgs@?A0x89cbbd6c@@YAPEADAEBVCallbackInfo@Napi@@_K@Z 000000018002a108     binding.obj
 0004:00000114       $pdata$3$?AddressForArgs@?A0x89cbbd6c@@YAPEADAEBVCallbackInfo@Napi@@_K@Z 000000018002a114     binding.obj
 0004:00000120       $pdata$4$?AddressForArgs@?A0x89cbbd6c@@YAPEADAEBVCallbackInfo@Napi@@_K@Z 000000018002a120     binding.obj
 0004:0000012c       $pdata$5$?AddressForArgs@?A0x89cbbd6c@@YAPEADAEBVCallbackInfo@Napi@@_K@Z 000000018002a12c     binding.obj
 0004:00000138       $pdata$??0TypeError@Napi@@QEAA@AEBV01@@Z 000000018002a138     binding.obj
 0004:00000144       $pdata$?Address@?A0x89cbbd6c@@YA?AVValue@Napi@@AEBVCallbackInfo@3@@Z 000000018002a144     binding.obj
 0004:00000150       $pdata$?HexAddress@?A0x89cbbd6c@@YA?AVValue@Napi@@AEBVCallbackInfo@3@@Z 000000018002a150     binding.obj
 0004:0000015c       $pdata$?IsNull@?A0x89cbbd6c@@YA?AVValue@Napi@@AEBVCallbackInfo@3@@Z 000000018002a15c     binding.obj
 0004:00000168       $pdata$?WrapPointer@?A0x89cbbd6c@@YA?AVValue@Napi@@VEnv@3@PEAD_K@Z 000000018002a168     binding.obj
 0004:00000174       $pdata$?ReadObject@?A0x89cbbd6c@@YA?AVValue@Napi@@AEBVCallbackInfo@3@@Z 000000018002a174     binding.obj
 0004:00000180       $pdata$?WriteObject@?A0x89cbbd6c@@YAXAEBVCallbackInfo@Napi@@@Z 000000018002a180     binding.obj
 0004:0000018c       $pdata$?ReadPointer@?A0x89cbbd6c@@YA?AVValue@Napi@@AEBVCallbackInfo@3@@Z 000000018002a18c     binding.obj
 0004:00000198       $pdata$?WritePointer@?A0x89cbbd6c@@YAXAEBVCallbackInfo@Napi@@@Z 000000018002a198     binding.obj
 0004:000001a4       $pdata$?ReadInt64@?A0x89cbbd6c@@YA?AVValue@Napi@@AEBVCallbackInfo@3@@Z 000000018002a1a4     binding.obj
 0004:000001b0       $pdata$0$?ReadInt64@?A0x89cbbd6c@@YA?AVValue@Napi@@AEBVCallbackInfo@3@@Z 000000018002a1b0     binding.obj
 0004:000001bc       $pdata$1$?ReadInt64@?A0x89cbbd6c@@YA?AVValue@Napi@@AEBVCallbackInfo@3@@Z 000000018002a1bc     binding.obj
 0004:000001c8       $pdata$?WriteInt64@?A0x89cbbd6c@@YAXAEBVCallbackInfo@Napi@@@Z 000000018002a1c8     binding.obj
 0004:000001d4       $pdata$?ReadUInt64@?A0x89cbbd6c@@YA?AVValue@Napi@@AEBVCallbackInfo@3@@Z 000000018002a1d4     binding.obj
 0004:000001e0       $pdata$0$?ReadUInt64@?A0x89cbbd6c@@YA?AVValue@Napi@@AEBVCallbackInfo@3@@Z 000000018002a1e0     binding.obj
 0004:000001ec       $pdata$1$?ReadUInt64@?A0x89cbbd6c@@YA?AVValue@Napi@@AEBVCallbackInfo@3@@Z 000000018002a1ec     binding.obj
 0004:000001f8       $pdata$?WriteUInt64@?A0x89cbbd6c@@YAXAEBVCallbackInfo@Napi@@@Z 000000018002a1f8     binding.obj
 0004:00000204       $pdata$?ReadCString@?A0x89cbbd6c@@YA?AVValue@Napi@@AEBVCallbackInfo@3@@Z 000000018002a204     binding.obj
 0004:00000210       $pdata$?ReinterpretBuffer@?A0x89cbbd6c@@YA?AVValue@Napi@@AEBVCallbackInfo@3@@Z 000000018002a210     binding.obj
 0004:0000021c       $pdata$?ReinterpretBufferUntilZeros@?A0x89cbbd6c@@YA?AVValue@Napi@@AEBVCallbackInfo@3@@Z 000000018002a21c     binding.obj
 0004:00000228       $pdata$?Init@@YA?AVObject@Napi@@VEnv@2@V12@@Z 000000018002a228     binding.obj
 0004:00000234       $pdata$??4?$PropertyLValue@V?$basic_string@DU?$char_traits@D@std@@V?$allocator@D@2@@std@@@Object@Napi@@QEAAAEAV012@AEBV012@@Z 000000018002a234     binding.obj
 0004:00000240       $pdata$?__napi_Init@@YAPEAUnapi_value__@@PEAUnapi_env__@@PEAU1@@Z 000000018002a240     binding.obj
 0004:0000024c       $pdata$?reserve@?$basic_string@DU?$char_traits@D@std@@V?$allocator@D@2@@std@@QEAAX_K@Z 000000018002a24c     binding.obj
 0004:00000258       $pdata$0$?reserve@?$basic_string@DU?$char_traits@D@std@@V?$allocator@D@2@@std@@QEAAX_K@Z 000000018002a258     binding.obj
 0004:00000264       $pdata$2$?reserve@?$basic_string@DU?$char_traits@D@std@@V?$allocator@D@2@@std@@QEAAX_K@Z 000000018002a264     binding.obj
 0004:00000270       $pdata$3$?reserve@?$basic_string@DU?$char_traits@D@std@@V?$allocator@D@2@@std@@QEAAX_K@Z 000000018002a270     binding.obj
 0004:0000027c       $pdata$4$?reserve@?$basic_string@DU?$char_traits@D@std@@V?$allocator@D@2@@std@@QEAAX_K@Z 000000018002a27c     binding.obj
 0004:00000288       $pdata$5$?reserve@?$basic_string@DU?$char_traits@D@std@@V?$allocator@D@2@@std@@QEAAX_K@Z 000000018002a288     binding.obj
 0004:00000294       $pdata$??1?$basic_string@DU?$char_traits@D@std@@V?$allocator@D@2@@std@@QEAA@XZ 000000018002a294     binding.obj
 0004:000002a0       $pdata$?assign@?$basic_string@DU?$char_traits@D@std@@V?$allocator@D@2@@std@@QEAAAEAV12@QEBD_K@Z 000000018002a2a0     binding.obj
 0004:000002ac       $pdata$0$?assign@?$basic_string@DU?$char_traits@D@std@@V?$allocator@D@2@@std@@QEAAAEAV12@QEBD_K@Z 000000018002a2ac     binding.obj
 0004:000002b8       $pdata$1$?assign@?$basic_string@DU?$char_traits@D@std@@V?$allocator@D@2@@std@@QEAAAEAV12@QEBD_K@Z 000000018002a2b8     binding.obj
 0004:000002c4       $pdata$2$?assign@?$basic_string@DU?$char_traits@D@std@@V?$allocator@D@2@@std@@QEAAAEAV12@QEBD_K@Z 000000018002a2c4     binding.obj
 0004:000002d0       $pdata$??0?$PropertyLValue@V?$basic_string@DU?$char_traits@D@std@@V?$allocator@D@2@@std@@@Object@Napi@@AEAA@V12@V?$basic_string@DU?$char_traits@D@std@@V?$allocator@D@2@@std@@@Z 000000018002a2d0     binding.obj
 0004:000002dc       $pdata$??0?$Reference@VObject@Napi@@@Napi@@IEAA@AEBV01@@Z 000000018002a2dc     binding.obj
 0004:000002e8       $pdata$??1?$Reference@VObject@Napi@@@Napi@@QEAA@XZ 000000018002a2e8     binding.obj
 0004:000002f4       $pdata$?Reset@?$Reference@VObject@Napi@@@Napi@@QEAAXXZ 000000018002a2f4     binding.obj
 0004:00000300       $pdata$??$WrapCallback@V<lambda_8c7377a71108815b2eee34f099f4cb99>@@@details@Napi@@YAPEAUnapi_value__@@V<lambda_8c7377a71108815b2eee34f099f4cb99>@@@Z 000000018002a300     binding.obj
 0004:0000030c       $pdata$??$?4VNumber@Napi@@@?$PropertyLValue@V?$basic_string@DU?$char_traits@D@std@@V?$allocator@D@2@@std@@@Object@Napi@@QEAAAEAV012@VNumber@2@@Z 000000018002a30c     binding.obj
 0004:0000030c       $pdata$??$?4VObject@Napi@@@?$PropertyLValue@V?$basic_string@DU?$char_traits@D@std@@V?$allocator@D@2@@std@@@Object@Napi@@QEAAAEAV012@V12@@Z 000000018002a30c     binding.obj
 0004:0000030c       $pdata$??$?4VValue@Napi@@@?$PropertyLValue@V?$basic_string@DU?$char_traits@D@std@@V?$allocator@D@2@@std@@@Object@Napi@@QEAAAEAV012@VValue@2@@Z 000000018002a30c     binding.obj
 0004:0000030c       $pdata$??$?4VFunction@Napi@@@?$PropertyLValue@V?$basic_string@DU?$char_traits@D@std@@V?$allocator@D@2@@std@@@Object@Napi@@QEAAAEAV012@VFunction@2@@Z 000000018002a30c     binding.obj
 0004:00000318       $pdata$??$New@P6A?AVValue@Napi@@AEBVCallbackInfo@2@@Z@Function@Napi@@SA?AV01@PEAUnapi_env__@@P6A?AVValue@1@AEBVCallbackInfo@1@@ZPEBDPEAX@Z 000000018002a318     binding.obj
 0004:00000324       $pdata$??$New@P6AXAEBVCallbackInfo@Napi@@@Z@Function@Napi@@SA?AV01@PEAUnapi_env__@@P6AXAEBVCallbackInfo@1@@ZPEBDPEAX@Z 000000018002a324     binding.obj
 0004:00000330       $pdata$??$_Reallocate_grow_by@V<lambda_e1befb086ad3257e3f042a63030725f7>@@_KD@?$basic_string@DU?$char_traits@D@std@@V?$allocator@D@2@@std@@QEAAAEAV01@_KV<lambda_e1befb086ad3257e3f042a63030725f7>@@_KD@Z 000000018002a330     binding.obj
 0004:0000033c       $pdata$2$??$_Reallocate_grow_by@V<lambda_e1befb086ad3257e3f042a63030725f7>@@_KD@?$basic_string@DU?$char_traits@D@std@@V?$allocator@D@2@@std@@QEAAAEAV01@_KV<lambda_e1befb086ad3257e3f042a63030725f7>@@_KD@Z 000000018002a33c     binding.obj
 0004:00000348       $pdata$4$??$_Reallocate_grow_by@V<lambda_e1befb086ad3257e3f042a63030725f7>@@_KD@?$basic_string@DU?$char_traits@D@std@@V?$allocator@D@2@@std@@QEAAAEAV01@_KV<lambda_e1befb086ad3257e3f042a63030725f7>@@_KD@Z 000000018002a348     binding.obj
 0004:00000354       $pdata$5$??$_Reallocate_grow_by@V<lambda_e1befb086ad3257e3f042a63030725f7>@@_KD@?$basic_string@DU?$char_traits@D@std@@V?$allocator@D@2@@std@@QEAAAEAV01@_KV<lambda_e1befb086ad3257e3f042a63030725f7>@@_KD@Z 000000018002a354     binding.obj
 0004:00000360       $pdata$?Wrapper@?$CallbackData@P6AXAEBVCallbackInfo@Napi@@@ZX@details@Napi@@SAPEAUnapi_value__@@PEAUnapi_env__@@PEAUnapi_callback_info__@@@Z 000000018002a360     binding.obj
 0004:0000036c       $pdata$?Wrapper@?$CallbackData@P6A?AVValue@Napi@@AEBVCallbackInfo@2@@ZV12@@details@Napi@@SAPEAUnapi_value__@@PEAUnapi_env__@@PEAUnapi_callback_info__@@@Z 000000018002a36c     binding.obj
 0004:00000378       $pdata$?_Xlen@?$basic_string@DU?$char_traits@D@std@@V?$allocator@D@2@@std@@SAXXZ 000000018002a378     binding.obj
 0004:00000384       $pdata$??$WrapCallback@V<lambda_03ec0e3e2a4187754bc7c97d0c48b30a>@@@details@Napi@@YAPEAUnapi_value__@@V<lambda_03ec0e3e2a4187754bc7c97d0c48b30a>@@@Z 000000018002a384     binding.obj
 0004:00000390       $pdata$??$WrapCallback@V<lambda_4b130013be4a466940e6fe08d32cda83>@@@details@Napi@@YAPEAUnapi_value__@@V<lambda_4b130013be4a466940e6fe08d32cda83>@@@Z 000000018002a390     binding.obj
 0004:0000039c       $pdata$?load_exe_hook@@YAP6A_JXZIPEAUDelayLoadInfo@@@Z 000000018002a39c     win_delay_load_hook.obj
 0004:000003b4       $pdata$??0bad_alloc@std@@QEAA@AEBV01@@Z 000000018002a3b4     libcpmt:xthrow.obj
 0004:000003c0       $pdata$??0exception@std@@QEAA@AEBV01@@Z 000000018002a3c0     libcpmt:xthrow.obj
 0004:000003cc       $pdata$??0length_error@std@@QEAA@AEBV01@@Z 000000018002a3cc     libcpmt:xthrow.obj
 0004:000003d8       $pdata$??0length_error@std@@QEAA@PEBD@Z 000000018002a3d8     libcpmt:xthrow.obj
 0004:000003e4       $pdata$??0logic_error@std@@QEAA@AEBV01@@Z 000000018002a3e4     libcpmt:xthrow.obj
 0004:000003f0       $pdata$??_Gexception@std@@UEAAPEAXI@Z 000000018002a3f0     libcpmt:xthrow.obj
 0004:000003f0       $pdata$??_Gbad_alloc@std@@UEAAPEAXI@Z 000000018002a3f0     libcpmt:xthrow.obj
 0004:000003f0       $pdata$??_Gbad_exception@std@@UEAAPEAXI@Z 000000018002a3f0     libvcruntime:frame.obj
 0004:000003f0       $pdata$??_Gbad_array_new_length@std@@UEAAPEAXI@Z 000000018002a3f0     LIBCMT:throw_bad_alloc.obj
 0004:000003f0       $pdata$??_Glength_error@std@@UEAAPEAXI@Z 000000018002a3f0     libcpmt:xthrow.obj
 0004:000003f0       $pdata$??_Glogic_error@std@@UEAAPEAXI@Z 000000018002a3f0     libcpmt:xthrow.obj
 0004:000003fc       $pdata$?_Xlength_error@std@@YAXPEBD@Z 000000018002a3fc     libcpmt:xthrow.obj
 0004:00000414       $pdata$??2@YAPEAX_K@Z      000000018002a414     LIBCMT:new_scalar.obj
 0004:00000420       $pdata$??_Gtype_info@@UEAAPEAXI@Z 000000018002a420     LIBCMT:std_type_info_static.obj
 0004:0000042c       $pdata$?dllmain_crt_dispatch@@YAHQEAUHINSTANCE__@@KQEAX@Z 000000018002a42c     LIBCMT:dll_dllmain.obj
 0004:00000438       $pdata$?dllmain_crt_process_attach@@YAHQEAUHINSTANCE__@@QEAX@Z 000000018002a438     LIBCMT:dll_dllmain.obj
 0004:00000444       $pdata$?dllmain_crt_process_detach@@YAH_N@Z 000000018002a444     LIBCMT:dll_dllmain.obj
 0004:00000450       $pdata$?dllmain_dispatch@@YAHQEAUHINSTANCE__@@KQEAX@Z 000000018002a450     LIBCMT:dll_dllmain.obj
 0004:0000045c       $pdata$_DllMainCRTStartup  000000018002a45c     LIBCMT:dll_dllmain.obj
 0004:00000468       $pdata$__raise_securityfailure 000000018002a468     LIBCMT:gs_report.obj
 0004:00000474       $pdata$__report_gsfailure  000000018002a474     LIBCMT:gs_report.obj
 0004:00000480       $pdata$__report_rangecheckfailure 000000018002a480     LIBCMT:gs_report.obj
 0004:0000048c       $pdata$__report_securityfailure 000000018002a48c     LIBCMT:gs_report.obj
 0004:00000498       $pdata$capture_current_context 000000018002a498     LIBCMT:gs_report.obj
 0004:000004a4       $pdata$capture_previous_context 000000018002a4a4     LIBCMT:gs_report.obj
 0004:000004b0       $pdata$??0bad_array_new_length@std@@QEAA@AEBV01@@Z 000000018002a4b0     LIBCMT:throw_bad_alloc.obj
 0004:000004bc       $pdata$?__scrt_throw_std_bad_alloc@@YAXXZ 000000018002a4bc     LIBCMT:throw_bad_alloc.obj
 0004:000004c8       $pdata$?__scrt_throw_std_bad_array_new_length@@YAXXZ 000000018002a4c8     LIBCMT:throw_bad_alloc.obj
 0004:000004d4       $pdata$__security_init_cookie 000000018002a4d4     LIBCMT:gs_support.obj
 0004:000004e0       $pdata$__scrt_initialize_default_local_stdio_options 000000018002a4e0     LIBCMT:default_local_stdio_options.obj
 0004:000004ec       $pdata$__scrt_acquire_startup_lock 000000018002a4ec     LIBCMT:utility.obj
 0004:000004f8       $pdata$__scrt_dllmain_after_initialize_c 000000018002a4f8     LIBCMT:utility.obj
 0004:00000504       $pdata$__scrt_dllmain_before_initialize_c 000000018002a504     LIBCMT:utility.obj
 0004:00000510       $pdata$__scrt_dllmain_crt_thread_attach 000000018002a510     LIBCMT:utility.obj
 0004:0000051c       $pdata$__scrt_dllmain_crt_thread_detach 000000018002a51c     LIBCMT:utility.obj
 0004:00000528       $pdata$__scrt_dllmain_exception_filter 000000018002a528     LIBCMT:utility.obj
 0004:00000534       $pdata$__scrt_dllmain_uninitialize_c 000000018002a534     LIBCMT:utility.obj
 0004:00000540       $pdata$__scrt_dllmain_uninitialize_critical 000000018002a540     LIBCMT:utility.obj
 0004:0000054c       $pdata$__scrt_initialize_crt 000000018002a54c     LIBCMT:utility.obj
 0004:00000558       $pdata$__scrt_initialize_onexit_tables 000000018002a558     LIBCMT:utility.obj
 0004:00000564       $pdata$__scrt_is_nonwritable_in_current_image 000000018002a564     LIBCMT:utility.obj
 0004:00000570       $pdata$__scrt_release_startup_lock 000000018002a570     LIBCMT:utility.obj
 0004:0000057c       $pdata$__scrt_uninitialize_crt 000000018002a57c     LIBCMT:utility.obj
 0004:00000588       $pdata$__scrt_fastfail     000000018002a588     LIBCMT:utility_desktop.obj
 0004:00000594       $pdata$_RTC_Initialize     000000018002a594     LIBCMT:initsect.obj
 0004:000005a0       $pdata$_RTC_Terminate      000000018002a5a0     LIBCMT:initsect.obj
 0004:000005ac       $pdata$__isa_available_init 000000018002a5ac     LIBCMT:cpu_disp.obj
 0004:000005b8       $pdata$??$_CallSETranslator@V__FrameHandler3@@@@YAHPEAUEHExceptionRecord@@PEA_KPEAU_CONTEXT@@PEAU_xDISPATCHER_CONTEXT@@PEBU_s_FuncInfo@@K1@Z 000000018002a5b8     libvcruntime:risctrnsctrl.obj
 0004:000005c4       $pdata$?CatchTryBlock@__FrameHandler3@@SAPEBU_s_TryBlockMapEntry@@PEBU_s_FuncInfo@@H@Z 000000018002a5c4     libvcruntime:risctrnsctrl.obj
 0004:000005d0       $pdata$?ExecutionInCatch@__FrameHandler3@@SA_NPEAU_xDISPATCHER_CONTEXT@@PEBU_s_FuncInfo@@@Z 000000018002a5d0     libvcruntime:risctrnsctrl.obj
 0004:000005dc       $pdata$?FrameUnwindToEmptyState@__FrameHandler3@@SAXPEA_KPEAU_xDISPATCHER_CONTEXT@@PEBU_s_FuncInfo@@@Z 000000018002a5dc     libvcruntime:risctrnsctrl.obj
 0004:000005e8       $pdata$?GetEstablisherFrame@__FrameHandler3@@SAPEA_KPEA_KPEAU_xDISPATCHER_CONTEXT@@PEBU_s_FuncInfo@@0@Z 000000018002a5e8     libvcruntime:risctrnsctrl.obj
 0004:000005f4       $pdata$?GetRangeOfTrysToCheck@__FrameHandler3@@SA?AU?$pair@Viterator@TryBlockMap@__FrameHandler3@@V123@@std@@AEAVTryBlockMap@1@HH@Z 000000018002a5f4     libvcruntime:risctrnsctrl.obj
 0004:00000600       $pdata$?UnwindNestedFrames@__FrameHandler3@@SAXPEA_KPEAUEHExceptionRecord@@PEAU_CONTEXT@@0PEAXPEBU_s_FuncInfo@@HHPEBU_s_HandlerType@@PEAU_xDISPATCHER_CONTEXT@@E@Z 000000018002a600     libvcruntime:risctrnsctrl.obj
 0004:0000060c       $pdata$_CreateFrameInfo    000000018002a60c     libvcruntime:risctrnsctrl.obj
 0004:00000618       $pdata$_FindAndUnlinkFrame 000000018002a618     libvcruntime:risctrnsctrl.obj
 0004:00000624       $pdata$_GetImageBase       000000018002a624     libvcruntime:risctrnsctrl.obj
 0004:00000630       $pdata$_GetThrowImageBase  000000018002a630     libvcruntime:risctrnsctrl.obj
 0004:0000063c       $pdata$_SetImageBase       000000018002a63c     libvcruntime:risctrnsctrl.obj
 0004:00000648       $pdata$_SetThrowImageBase  000000018002a648     libvcruntime:risctrnsctrl.obj
 0004:00000654       $pdata$__CxxFrameHandler3  000000018002a654     libvcruntime:risctrnsctrl.obj
 0004:00000660       $pdata$__DestructExceptionObject 000000018002a660     libvcruntime:ehhelpers.obj
 0004:0000066c       $pdata$_IsExceptionObjectToBeDestroyed 000000018002a66c     libvcruntime:ehhelpers.obj
 0004:00000678       $pdata$__FrameUnwindFilter 000000018002a678     libvcruntime:ehhelpers.obj
 0004:00000684       $pdata$__std_exception_copy 000000018002a684     libvcruntime:std_exception.obj
 0004:00000690       $pdata$__std_exception_destroy 000000018002a690     libvcruntime:std_exception.obj
 0004:0000069c       $pdata$_CxxThrowException  000000018002a69c     libvcruntime:throw.obj
 0004:000006a8       $pdata$__C_specific_handler 000000018002a6a8     libvcruntime:riscchandler.obj
 0004:000006b4       $pdata$__std_type_info_destroy_list 000000018002a6b4     libvcruntime:std_type_info.obj
 0004:000006c0       $pdata$__vcrt_initialize   000000018002a6c0     libvcruntime:initialization.obj
 0004:000006cc       $pdata$__vcrt_thread_attach 000000018002a6cc     libvcruntime:initialization.obj
 0004:000006d8       $pdata$__vcrt_thread_detach 000000018002a6d8     libvcruntime:initialization.obj
 0004:000006e4       $pdata$__vcrt_uninitialize 000000018002a6e4     libvcruntime:initialization.obj
 0004:000006f0       $pdata$__vcrt_uninitialize_critical 000000018002a6f0     libvcruntime:initialization.obj
 0004:00000714       $pdata$__vcrt_freefls      000000018002a714     libvcruntime:per_thread_data.obj
 0004:00000720       $pdata$__vcrt_freeptd      000000018002a720     libvcruntime:per_thread_data.obj
 0004:0000072c       $pdata$__vcrt_getptd       000000018002a72c     libvcruntime:per_thread_data.obj
 0004:00000738       $pdata$__vcrt_getptd_noexit 000000018002a738     libvcruntime:per_thread_data.obj
 0004:00000744       $pdata$__vcrt_initialize_ptd 000000018002a744     libvcruntime:per_thread_data.obj
 0004:00000750       $pdata$__vcrt_uninitialize_ptd 000000018002a750     libvcruntime:per_thread_data.obj
 0004:0000075c       $pdata$?GetCurrentState@__FrameHandler3@@SAHPEA_KPEAU_xDISPATCHER_CONTEXT@@PEBU_s_FuncInfo@@@Z 000000018002a75c     libvcruntime:ehstate.obj
 0004:00000768       $pdata$?GetUnwindTryBlock@__FrameHandler3@@SAHPEA_KPEAU_xDISPATCHER_CONTEXT@@PEBU_s_FuncInfo@@@Z 000000018002a768     libvcruntime:ehstate.obj
 0004:00000774       $pdata$?SetUnwindTryBlock@__FrameHandler3@@SAXPEA_KPEAU_xDISPATCHER_CONTEXT@@PEBU_s_FuncInfo@@H@Z 000000018002a774     libvcruntime:ehstate.obj
 0004:00000780       $pdata$?StateFromIp@__FrameHandler3@@SAHPEBU_s_FuncInfo@@PEAU_xDISPATCHER_CONTEXT@@_K@Z 000000018002a780     libvcruntime:ehstate.obj
 0004:0000078c       $pdata$??$BuildCatchObjectHelperInternal@V__FrameHandler3@@@@YAHPEAUEHExceptionRecord@@PEAXPEBU_s_HandlerType@@PEBU_s_CatchableType@@@Z 000000018002a78c     libvcruntime:frame.obj
 0004:00000798       $pdata$??$BuildCatchObjectInternal@V__FrameHandler3@@@@YAXPEAUEHExceptionRecord@@PEAXPEBU_s_HandlerType@@PEBU_s_CatchableType@@@Z 000000018002a798     libvcruntime:frame.obj
 0004:000007a4       $pdata$??$CatchIt@V__FrameHandler3@@@@YAXPEAUEHExceptionRecord@@PEA_KPEAU_CONTEXT@@PEAU_xDISPATCHER_CONTEXT@@PEBU_s_FuncInfo@@PEBU_s_HandlerType@@PEBU_s_CatchableType@@PEBU_s_TryBlockMapEntry@@H1EE@Z 000000018002a7a4     libvcruntime:frame.obj
 0004:000007b0       $pdata$??$FindHandler@V__FrameHandler3@@@@YAXPEAUEHExceptionRecord@@PEA_KPEAU_CONTEXT@@PEAU_xDISPATCHER_CONTEXT@@PEBU_s_FuncInfo@@EH1@Z 000000018002a7b0     libvcruntime:frame.obj
 0004:000007bc       $pdata$??$FindHandlerForForeignException@V__FrameHandler3@@@@YAXPEAUEHExceptionRecord@@PEA_KPEAU_CONTEXT@@PEAU_xDISPATCHER_CONTEXT@@PEBU_s_FuncInfo@@HH1@Z 000000018002a7bc     libvcruntime:frame.obj
 0004:000007c8       $pdata$??$TypeMatchHelper@V__FrameHandler3@@@@YAHPEBU_s_HandlerType@@PEBU_s_CatchableType@@PEBU_s_ThrowInfo@@@Z 000000018002a7c8     libvcruntime:frame.obj
 0004:000007d4       $pdata$??$__InternalCxxFrameHandler@V__FrameHandler3@@@@YA?AW4_EXCEPTION_DISPOSITION@@PEAUEHExceptionRecord@@PEA_KPEAU_CONTEXT@@PEAU_xDISPATCHER_CONTEXT@@PEBU_s_FuncInfo@@H1E@Z 000000018002a7d4     libvcruntime:frame.obj
 0004:000007e0       $pdata$??0bad_exception@std@@QEAA@AEBV01@@Z 000000018002a7e0     libvcruntime:frame.obj
 0004:000007ec       $pdata$?CxxCallCatchBlock@__FrameHandler3@@SAPEAXPEAU_EXCEPTION_RECORD@@@Z 000000018002a7ec     libvcruntime:frame.obj
 0004:000007f8       $pdata$?ExFilterRethrow@@YAHPEAU_EXCEPTION_POINTERS@@PEAUEHExceptionRecord@@PEAH@Z 000000018002a7f8     libvcruntime:frame.obj
 0004:00000804       $pdata$?FrameUnwindToState@__FrameHandler3@@SAXPEA_KPEAU_xDISPATCHER_CONTEXT@@PEBU_s_FuncInfo@@H@Z 000000018002a804     libvcruntime:frame.obj
 0004:00000810       $pdata$?GetHandlerSearchState@__FrameHandler3@@SAHPEA_KPEAU_xDISPATCHER_CONTEXT@@PEBU_s_FuncInfo@@@Z 000000018002a810     libvcruntime:frame.obj
 0004:0000081c       $pdata$?IsInExceptionSpec@@YAEPEAUEHExceptionRecord@@PEBU_s_ESTypeList@@@Z 000000018002a81c     libvcruntime:frame.obj
 0004:00000828       $pdata$?Is_bad_exception_allowed@@YAEPEBU_s_ESTypeList@@@Z 000000018002a828     libvcruntime:frame.obj
 0004:00000858       $pdata$__vcrt_initialize_locks 000000018002a858     libvcruntime:locks.obj
 0004:00000864       $pdata$__vcrt_uninitialize_locks 000000018002a864     libvcruntime:locks.obj
 0004:00000870       $pdata$?try_get_function@@YAPEAXW4function_id@?A0x14c33c87@@QEBDQEBW4module_id@2@2@Z 000000018002a870     libvcruntime:winapi_downlevel.obj
 0004:0000087c       $pdata$__vcrt_FlsAlloc     000000018002a87c     libvcruntime:winapi_downlevel.obj
 0004:00000888       $pdata$__vcrt_FlsFree      000000018002a888     libvcruntime:winapi_downlevel.obj
 0004:00000894       $pdata$__vcrt_FlsGetValue  000000018002a894     libvcruntime:winapi_downlevel.obj
 0004:000008a0       $pdata$__vcrt_FlsSetValue  000000018002a8a0     libvcruntime:winapi_downlevel.obj
 0004:000008ac       $pdata$__vcrt_InitializeCriticalSectionEx 000000018002a8ac     libvcruntime:winapi_downlevel.obj
 0004:000008b8       $pdata$__vcrt_initialize_winapi_thunks 000000018002a8b8     libvcruntime:winapi_downlevel.obj
 0004:000008c4       $pdata$__vcrt_uninitialize_winapi_thunks 000000018002a8c4     libvcruntime:winapi_downlevel.obj
 0004:00000900       $pdata$??$parse_integer@KV?$c_string_character_source@D@__crt_strtox@@@__crt_strtox@@YAKQEAU__crt_locale_pointers@@V?$c_string_character_source@D@0@H_N@Z 000000018002a900     libucrt:strtox.obj
 0004:0000090c       $pdata$??$parse_integer@_KV?$c_string_character_source@D@__crt_strtox@@@__crt_strtox@@YA_KQEAU__crt_locale_pointers@@V?$c_string_character_source@D@0@H_N@Z 000000018002a90c     libucrt:strtox.obj
 0004:00000918       $pdata$??0_LocaleUpdate@@QEAA@QEAU__crt_locale_pointers@@@Z 000000018002a918     libucrt:strtox.obj
 0004:00000924       $pdata$_strtoi64           000000018002a924     libucrt:strtox.obj
 0004:00000930       $pdata$_strtoui64          000000018002a930     libucrt:strtox.obj
 0004:0000093c       $pdata$strtol              000000018002a93c     libucrt:strtox.obj
 0004:00000948       $pdata$??$common_vsprintf@Vformat_validation_base@__crt_stdio_output@@D@@YAH_KQEAD0QEBDQEAU__crt_locale_pointers@@1@Z 000000018002a948     libucrt:output.obj
 0004:00000954       $pdata$??$ensure_buffer_is_big_enough@D@formatting_buffer@__crt_stdio_output@@QEAA_N_K@Z 000000018002a954     libucrt:output.obj
 0004:00000960       $pdata$??$type_case_integer_parse_into_buffer@I@?$output_processor@DV?$string_output_adapter@D@__crt_stdio_output@@V?$format_validation_base@DV?$string_output_adapter@D@__crt_stdio_output@@@2@@__crt_stdio_output@@AEAAXII_N@Z 000000018002a960     libucrt:output.obj
 0004:0000096c       $pdata$??$type_case_integer_parse_into_buffer@_K@?$output_processor@DV?$string_output_adapter@D@__crt_stdio_output@@V?$format_validation_base@DV?$string_output_adapter@D@__crt_stdio_output@@@2@@__crt_stdio_output@@AEAAX_KI_N@Z 000000018002a96c     libucrt:output.obj
 0004:00000978       $pdata$??$write_multiple_characters@V?$string_output_adapter@D@__crt_stdio_output@@D@__crt_stdio_output@@YAXAEBV?$string_output_adapter@D@0@DHQEAH@Z 000000018002a978     libucrt:output.obj
 0004:00000984       $pdata$?force_decimal_point@__crt_stdio_output@@YAXPEADQEAU__crt_locale_pointers@@@Z 000000018002a984     libucrt:output.obj
 0004:00000990       $pdata$?parse_int_from_format_string@?$output_processor@DV?$string_output_adapter@D@__crt_stdio_output@@V?$format_validation_base@DV?$string_output_adapter@D@__crt_stdio_output@@@2@@__crt_stdio_output@@AEAA_NQEAH@Z 000000018002a990     libucrt:output.obj
 0004:0000099c       $pdata$?process@?$output_processor@DV?$string_output_adapter@D@__crt_stdio_output@@V?$format_validation_base@DV?$string_output_adapter@D@__crt_stdio_output@@@2@@__crt_stdio_output@@QEAAHXZ 000000018002a99c     libucrt:output.obj
 0004:000009a8       $pdata$?state_case_normal@?$output_processor@DV?$string_output_adapter@D@__crt_stdio_output@@V?$format_validation_base@DV?$string_output_adapter@D@__crt_stdio_output@@@2@@__crt_stdio_output@@AEAA_NXZ 000000018002a9a8     libucrt:output.obj
 0004:000009b4       $pdata$?state_case_normal_tchar@?$output_processor@DV?$string_output_adapter@D@__crt_stdio_output@@V?$format_validation_base@DV?$string_output_adapter@D@__crt_stdio_output@@@2@@__crt_stdio_output@@AEAA_ND@Z 000000018002a9b4     libucrt:output.obj
 0004:000009c0       $pdata$?state_case_size@?$output_processor@DV?$string_output_adapter@D@__crt_stdio_output@@V?$format_validation_base@DV?$string_output_adapter@D@__crt_stdio_output@@@2@@__crt_stdio_output@@AEAA_NXZ 000000018002a9c0     libucrt:output.obj
 0004:000009cc       $pdata$?state_case_type@?$output_processor@DV?$string_output_adapter@D@__crt_stdio_output@@V?$format_validation_base@DV?$string_output_adapter@D@__crt_stdio_output@@@2@@__crt_stdio_output@@AEAA_NXZ 000000018002a9cc     libucrt:output.obj
 0004:000009d8       $pdata$?type_case_a@?$output_processor@DV?$string_output_adapter@D@__crt_stdio_output@@V?$format_validation_base@DV?$string_output_adapter@D@__crt_stdio_output@@@2@@__crt_stdio_output@@AEAA_NXZ 000000018002a9d8     libucrt:output.obj
 0004:000009e4       $pdata$?type_case_c_tchar@?$output_processor@DV?$string_output_adapter@D@__crt_stdio_output@@V?$format_validation_base@DV?$string_output_adapter@D@__crt_stdio_output@@@2@@__crt_stdio_output@@AEAA_ND@Z 000000018002a9e4     libucrt:output.obj
 0004:000009f0       $pdata$?type_case_integer@?$output_processor@DV?$string_output_adapter@D@__crt_stdio_output@@V?$format_validation_base@DV?$string_output_adapter@D@__crt_stdio_output@@@2@@__crt_stdio_output@@AEAA_NI_N@Z 000000018002a9f0     libucrt:output.obj
 0004:000009fc       $pdata$?type_case_n@?$output_processor@DV?$string_output_adapter@D@__crt_stdio_output@@V?$format_validation_base@DV?$string_output_adapter@D@__crt_stdio_output@@@2@@__crt_stdio_output@@AEAA_NXZ 000000018002a9fc     libucrt:output.obj
 0004:00000a08       $pdata$?type_case_s@?$output_processor@DV?$string_output_adapter@D@__crt_stdio_output@@V?$format_validation_base@DV?$string_output_adapter@D@__crt_stdio_output@@@2@@__crt_stdio_output@@AEAA_NXZ 000000018002aa08     libucrt:output.obj
 0004:00000a14       $pdata$?write_stored_string_tchar@?$output_processor@DV?$string_output_adapter@D@__crt_stdio_output@@V?$format_validation_base@DV?$string_output_adapter@D@__crt_stdio_output@@@2@@__crt_stdio_output@@AEAA_ND@Z 000000018002aa14     libucrt:output.obj
 0004:00000a20       $pdata$?write_string@?$string_output_adapter@D@__crt_stdio_output@@QEBAXQEBDHQEAHAEAV__crt_deferred_errno_cache@@@Z 000000018002aa20     libucrt:output.obj
 0004:00000a2c       $pdata$__stdio_common_vsnprintf_s 000000018002aa2c     libucrt:output.obj
 0004:00000a38       $pdata$__acrt_errno_map_os_error 000000018002aa38     libucrt:errno.obj
 0004:00000a44       $pdata$__doserrno          000000018002aa44     libucrt:errno.obj
 0004:00000a50       $pdata$_errno              000000018002aa50     libucrt:errno.obj
 0004:00000a5c       $pdata$strerror            000000018002aa5c     libucrt:strerror.obj
 0004:00000a68       $pdata$__acrt_call_reportfault 000000018002aa68     libucrt:invalid_parameter.obj
 0004:00000a74       $pdata$_invalid_parameter  000000018002aa74     libucrt:invalid_parameter.obj
 0004:00000a80       $pdata$_invalid_parameter_noinfo 000000018002aa80     libucrt:invalid_parameter.obj
 0004:00000a8c       $pdata$_invalid_parameter_noinfo_noreturn 000000018002aa8c     libucrt:invalid_parameter.obj
 0004:00000a98       $pdata$_invoke_watson      000000018002aa98     libucrt:invalid_parameter.obj
 0004:00000aa4       $pdata$_stricmp            000000018002aaa4     libucrt:stricmp.obj
 0004:00000ab0       $pdata$_stricmp_l          000000018002aab0     libucrt:stricmp.obj
 0004:00000abc       $pdata$_callnewh           000000018002aabc     libucrt:new_handler.obj
 0004:00000ac8       $pdata$_query_new_handler  000000018002aac8     libucrt:new_handler.obj
 0004:00000ad4       $pdata$_initterm           000000018002aad4     libucrt:initterm.obj
 0004:00000ae0       $pdata$_initterm_e         000000018002aae0     libucrt:initterm.obj
 0004:00000aec       $pdata$_seh_filter_exe     000000018002aaec     libucrt:exception_filter.obj
 0004:00000af8       $pdata$??$?RV<lambda_d80eeec6fff315bfe5c115232f3240e3>@@AEAV<lambda_6e4b09c48022b2350581041d5f6b0c4c>@@V<lambda_2358e3775559c9db80273638284d5e45>@@@?$__crt_seh_guarded_call@X@@QEAAX$$QEAV<lambda_d80eeec6fff315bfe5c115232f3240e3>@@AEAV<lambda_6e4b09c48022b2350581041d5f6b0c4c>@@$$QEAV<lambda_2358e3775559c9db80273638284d5e45>@@@Z 000000018002aaf8     libucrt:exit.obj
 0004:00000b04       $pdata$??R<lambda_6e4b09c48022b2350581041d5f6b0c4c>@@QEBA@XZ 000000018002ab04     libucrt:exit.obj
 0004:00000b10       $pdata$?common_exit@@YAXHW4_crt_exit_cleanup_mode@@W4_crt_exit_return_mode@@@Z 000000018002ab10     libucrt:exit.obj
 0004:00000b1c       $pdata$?exit_or_terminate_process@@YAXI@Z 000000018002ab1c     libucrt:exit.obj
 0004:00000b28       $pdata$?try_cor_exit_process@@YAXI@Z 000000018002ab28     libucrt:exit.obj
 0004:00000b34       $pdata$??$parse_command_line@D@@YAXPEADPEAPEAD0PEA_K2@Z 000000018002ab34     libucrt:argv_parsing.obj
 0004:00000b40       $pdata$__acrt_allocate_buffer_for_argv 000000018002ab40     libucrt:argv_parsing.obj
 0004:00000b4c       $pdata$_configure_narrow_argv 000000018002ab4c     libucrt:argv_parsing.obj
 0004:00000b58       $pdata$??$common_initialize_environment_nolock@D@@YAHXZ 000000018002ab58     libucrt:environment_initialization.obj
 0004:00000b64       $pdata$??$create_environment@D@@YAQEAPEADQEAD@Z 000000018002ab64     libucrt:environment_initialization.obj
 0004:00000b70       $pdata$??$free_environment@_W@@YAXQEAPEA_W@Z 000000018002ab70     libucrt:environment_initialization.obj
 0004:00000b70       $pdata$??$free_environment@D@@YAXQEAPEAD@Z 000000018002ab70     libucrt:environment_initialization.obj
 0004:00000b7c       $pdata$??$uninitialize_environment_internal@D@@YAXAEAPEAPEAD@Z 000000018002ab7c     libucrt:environment_initialization.obj
 0004:00000b88       $pdata$??$uninitialize_environment_internal@_W@@YAXAEAPEAPEA_W@Z 000000018002ab88     libucrt:environment_initialization.obj
 0004:00000b94       $pdata$__dcrt_uninitialize_environments_nolock 000000018002ab94     libucrt:environment_initialization.obj
 0004:00000ba0       $pdata$??$?RV<lambda_7777bce6b2f8c936911f934f8298dc43>@@AEAV<lambda_f03950bc5685219e0bcd2087efbe011e>@@V<lambda_3883c3dff614d5e0c5f61bb1ac94921c>@@@?$__crt_seh_guarded_call@H@@QEAAH$$QEAV<lambda_7777bce6b2f8c936911f934f8298dc43>@@AEAV<lambda_f03950bc5685219e0bcd2087efbe011e>@@$$QEAV<lambda_3883c3dff614d5e0c5f61bb1ac94921c>@@@Z 000000018002aba0     libucrt:onexit.obj
 0004:00000bac       $pdata$??R<lambda_f03950bc5685219e0bcd2087efbe011e>@@QEBAHXZ 000000018002abac     libucrt:onexit.obj
 0004:00000bb8       $pdata$_execute_onexit_table 000000018002abb8     libucrt:onexit.obj
 0004:00000bc4       $pdata$initialize_c        000000018002abc4     libucrt:initialization.obj
 0004:00000bd0       $pdata$uninitialize_environment 000000018002abd0     libucrt:initialization.obj
 0004:00000bdc       $pdata$initialize_pointers 000000018002abdc     libucrt:initialization.obj
 0004:00000be8       $pdata$uninitialize_allocated_memory 000000018002abe8     libucrt:initialization.obj
 0004:00000bf4       $pdata$uninitialize_allocated_io_buffers 000000018002abf4     libucrt:initialization.obj
 0004:00000c00       $pdata$__acrt_thread_attach 000000018002ac00     libucrt:initialization.obj
 0004:00000c0c       $pdata$__acrt_thread_detach 000000018002ac0c     libucrt:initialization.obj
 0004:00000c18       $pdata$__acrt_uninitialize 000000018002ac18     libucrt:initialization.obj
 0004:00000c24       $pdata$__acrt_uninitialize_critical 000000018002ac24     libucrt:initialization.obj
 0004:00000c30       $pdata$terminate           000000018002ac30     libucrt:terminate.obj
 0004:00000c3c       $pdata$strcpy_s            000000018002ac3c     libucrt:strcpy_s.obj
 0004:00000c48       $pdata$abort               000000018002ac48     libucrt:abort.obj
 0004:00000c60       $pdata$__pctype_func       000000018002ac60     libucrt:ctype.obj
 0004:00000c6c       $pdata$_isctype_l          000000018002ac6c     libucrt:isctype.obj
 0004:00000c78       $pdata$??$?RV<lambda_0ae27a3a962d80f24befdcbee591983d>@@AEAV<lambda_8d0ee55de4b1038c4002e0adecdf1839>@@V<lambda_dc504788e8f1664fe9b84e20bfb512f2>@@@?$__crt_seh_guarded_call@X@@QEAAX$$QEAV<lambda_0ae27a3a962d80f24befdcbee591983d>@@AEAV<lambda_8d0ee55de4b1038c4002e0adecdf1839>@@$$QEAV<lambda_dc504788e8f1664fe9b84e20bfb512f2>@@@Z 000000018002ac78     libucrt:per_thread_data.obj
 0004:00000c84       $pdata$??$?RV<lambda_2d41944a1d46af3157314b8a01080d33>@@AEAV<lambda_8f455de75cd7d7f24b4096f044d8b9e6>@@V<lambda_aa500f224e6afead328df44964fe2772>@@@?$__crt_seh_guarded_call@X@@QEAAX$$QEAV<lambda_2d41944a1d46af3157314b8a01080d33>@@AEAV<lambda_8f455de75cd7d7f24b4096f044d8b9e6>@@$$QEAV<lambda_aa500f224e6afead328df44964fe2772>@@@Z 000000018002ac84     libucrt:per_thread_data.obj
 0004:00000c90       $pdata$??$?RV<lambda_aa87e3671a710a21b5dc78c0bdf72e11>@@AEAV<lambda_92619d2358a28f41a33ba319515a20b9>@@V<lambda_6992ecaafeb10aed2b74cb1fae11a551>@@@?$__crt_seh_guarded_call@X@@QEAAX$$QEAV<lambda_aa87e3671a710a21b5dc78c0bdf72e11>@@AEAV<lambda_92619d2358a28f41a33ba319515a20b9>@@$$QEAV<lambda_6992ecaafeb10aed2b74cb1fae11a551>@@@Z 000000018002ac90     libucrt:per_thread_data.obj
 0004:00000c9c       $pdata$??$?RV<lambda_f2e299630e499de9f9a165e60fcd3db5>@@AEAV<lambda_2ae9d31cdba2644fcbeaf08da7c24588>@@V<lambda_40d01ff24d0e7b3814fdbdcee8eab3c7>@@@?$__crt_seh_guarded_call@X@@QEAAX$$QEAV<lambda_f2e299630e499de9f9a165e60fcd3db5>@@AEAV<lambda_2ae9d31cdba2644fcbeaf08da7c24588>@@$$QEAV<lambda_40d01ff24d0e7b3814fdbdcee8eab3c7>@@@Z 000000018002ac9c     libucrt:per_thread_data.obj
 0004:00000ca8       $pdata$?construct_ptd_array@@YAXQEAU__acrt_ptd@@@Z 000000018002aca8     libucrt:per_thread_data.obj
 0004:00000cb4       $pdata$?destroy_fls@@YAXPEAX@Z 000000018002acb4     libucrt:per_thread_data.obj
 0004:00000cc0       $pdata$?destroy_ptd_array@@YAXQEAU__acrt_ptd@@@Z 000000018002acc0     libucrt:per_thread_data.obj
 0004:00000ccc       $pdata$?replace_current_thread_locale_nolock@@YAXQEAU__acrt_ptd@@QEAU__crt_locale_data@@@Z 000000018002accc     libucrt:per_thread_data.obj
 0004:00000cd8       $pdata$__acrt_freeptd      000000018002acd8     libucrt:per_thread_data.obj
 0004:00000ce4       $pdata$__acrt_getptd       000000018002ace4     libucrt:per_thread_data.obj
 0004:00000cf0       $pdata$__acrt_getptd_head  000000018002acf0     libucrt:per_thread_data.obj
 0004:00000cfc       $pdata$__acrt_getptd_noexit 000000018002acfc     libucrt:per_thread_data.obj
 0004:00000d08       $pdata$__acrt_initialize_ptd 000000018002ad08     libucrt:per_thread_data.obj
 0004:00000d14       $pdata$__acrt_uninitialize_ptd 000000018002ad14     libucrt:per_thread_data.obj
 0004:00000d20       $pdata$__acrt_update_locale_info 000000018002ad20     libucrt:locale_update.obj
 0004:00000d2c       $pdata$__acrt_update_multibyte_info 000000018002ad2c     libucrt:locale_update.obj
 0004:00000d38       $pdata$??$?RV<lambda_410d79af7f07d98d83a3f525b3859a53>@@AEAV<lambda_3e16ef9562a7dcce91392c22ab16ea36>@@V<lambda_38119f0e861e05405d8a144b9b982f0a>@@@?$__crt_seh_guarded_call@X@@QEAAX$$QEAV<lambda_410d79af7f07d98d83a3f525b3859a53>@@AEAV<lambda_3e16ef9562a7dcce91392c22ab16ea36>@@$$QEAV<lambda_38119f0e861e05405d8a144b9b982f0a>@@@Z 000000018002ad38     libucrt:wsetlocale.obj
 0004:00000d44       $pdata$__acrt_uninitialize_locale 000000018002ad44     libucrt:wsetlocale.obj
 0004:00000d50       $pdata$isdigit             000000018002ad50     libucrt:_ctype.obj
 0004:00000d5c       $pdata$?internal_isupper_l@@YA_NHQEAU__crt_locale_pointers@@@Z 000000018002ad5c     libucrt:tolower_toupper.obj
 0004:00000d68       $pdata$_tolower_l          000000018002ad68     libucrt:tolower_toupper.obj
 0004:00000d74       $pdata$tolower             000000018002ad74     libucrt:tolower_toupper.obj
 0004:00000d80       $pdata$_free_base          000000018002ad80     libucrt:free_base.obj
 0004:00000d8c       $pdata$_malloc_base        000000018002ad8c     libucrt:malloc_base.obj
 0004:00000d98       $pdata$_mbtowc_l           000000018002ad98     libucrt:mbtowc.obj
 0004:00000da4       $pdata$_wctomb_s_l         000000018002ada4     libucrt:wctomb.obj
 0004:00000db0       $pdata$wctomb_s            000000018002adb0     libucrt:wctomb.obj
 0004:00000dbc       $pdata$?fp_format_a@@YAHQEBNPEAD_KQEAD2H_NIQEAU__crt_locale_pointers@@@Z 000000018002adbc     libucrt:cvt.obj
 0004:00000dc8       $pdata$?fp_format_e@@YAHQEBNQEAD_K12H_NIQEAU__crt_locale_pointers@@@Z 000000018002adc8     libucrt:cvt.obj
 0004:00000dd4       $pdata$?fp_format_e_internal@@YAHQEAD_KH_NIQEAU_strflt@@2QEAU__crt_locale_pointers@@@Z 000000018002add4     libucrt:cvt.obj
 0004:00000de0       $pdata$?fp_format_f_internal@@YAHQEAD_KHQEAU_strflt@@_NQEAU__crt_locale_pointers@@@Z 000000018002ade0     libucrt:cvt.obj
 0004:00000dec       $pdata$?fp_format_g@@YAHQEBNQEAD_K12H_NIQEAU__crt_locale_pointers@@@Z 000000018002adec     libucrt:cvt.obj
 0004:00000df8       $pdata$?fp_format_nan_or_infinity@@YAHW4__acrt_fp_class@@_NPEAD_K1@Z 000000018002adf8     libucrt:cvt.obj
 0004:00000e04       $pdata$__acrt_fp_format    000000018002ae04     libucrt:cvt.obj
 0004:00000e10       $pdata$_fileno             000000018002ae10     libucrt:fileno.obj
 0004:00000e1c       $pdata$__acrt_initialize_stdio 000000018002ae1c     libucrt:_file.obj
 0004:00000e28       $pdata$__acrt_uninitialize_stdio 000000018002ae28     libucrt:_file.obj
 0004:00000e34       $pdata$?initialize_inherited_file_handles_nolock@@YAXXZ 000000018002ae34     libucrt:ioinit.obj
 0004:00000e40       $pdata$?initialize_stdio_handles_nolock@@YAXXZ 000000018002ae40     libucrt:ioinit.obj
 0004:00000e4c       $pdata$__acrt_initialize_lowio 000000018002ae4c     libucrt:ioinit.obj
 0004:00000e58       $pdata$__acrt_uninitialize_lowio 000000018002ae58     libucrt:ioinit.obj
 0004:00000e64       $pdata$_calloc_base        000000018002ae64     libucrt:calloc_base.obj
 0004:00000e70       $pdata$strncpy_s           000000018002ae70     libucrt:strncpy_s.obj
 0004:00000e7c       $pdata$__acrt_initialize_locks 000000018002ae7c     libucrt:locks.obj
 0004:00000e88       $pdata$__acrt_uninitialize_locks 000000018002ae88     libucrt:locks.obj
 0004:00000e94       $pdata$__acrt_get_process_end_policy 000000018002ae94     libucrt:win_policies.obj
 0004:00000ea0       $pdata$??$__acrt_mbs_to_wcs_cp@U__crt_win32_buffer_internal_dynamic_resizing@@@@YAHQEBDAEAV?$__crt_win32_buffer@_WU__crt_win32_buffer_internal_dynamic_resizing@@@@I@Z 000000018002aea0     libucrt:argv_wildcards.obj
 0004:00000eac       $pdata$??$__acrt_wcs_to_mbs_cp@U__crt_win32_buffer_internal_dynamic_resizing@@@@YAHQEB_WAEAV?$__crt_win32_buffer@DU__crt_win32_buffer_internal_dynamic_resizing@@@@I@Z 000000018002aeac     libucrt:argv_wildcards.obj
 0004:00000eb8       $pdata$??$common_expand_argv_wildcards@D@@YAHQEAPEADQEAPEAPEAD@Z 000000018002aeb8     libucrt:argv_wildcards.obj
 0004:00000ec4       $pdata$??$copy_and_add_argument_to_buffer@D@@YAHQEBD0_KAEAV?$argument_list@D@?A0x5f5c8891@@@Z 000000018002aec4     libucrt:argv_wildcards.obj
 0004:00000ed0       $pdata$??$expand_argument_wildcards@D@@YAHQEAD0AEAV?$argument_list@D@?A0x5f5c8891@@@Z 000000018002aed0     libucrt:argv_wildcards.obj
 0004:00000edc       $pdata$??$__acrt_wcs_to_mbs_cp@U__crt_win32_buffer_no_resizing@@@@YAHQEB_WAEAV?$__crt_win32_buffer@DU__crt_win32_buffer_no_resizing@@@@I@Z 000000018002aedc     libucrt:getmodulefilenamea.obj
 0004:00000ee8       $pdata$__acrt_GetModuleFileNameA 000000018002aee8     libucrt:getmodulefilenamea.obj
 0004:00000ef4       $pdata$??$?RV<lambda_efdfa57d1f175319df784efa44bb7b81>@@AEAV<lambda_5f0a4c1567f8adc6734073e5d1e1b35c>@@V<lambda_2e8a7d3640ea6ccb4c2413664c2db6fd>@@@?$__crt_seh_guarded_call@X@@QEAAX$$QEAV<lambda_efdfa57d1f175319df784efa44bb7b81>@@AEAV<lambda_5f0a4c1567f8adc6734073e5d1e1b35c>@@$$QEAV<lambda_2e8a7d3640ea6ccb4c2413664c2db6fd>@@@Z 000000018002aef4     libucrt:mbctype.obj
 0004:00000f00       $pdata$?getSystemCP@@YAHH@Z 000000018002af00     libucrt:mbctype.obj
 0004:00000f0c       $pdata$?setSBCS@@YAXPEAU__crt_multibyte_data@@@Z 000000018002af0c     libucrt:mbctype.obj
 0004:00000f18       $pdata$?setSBUpLow@@YAXPEAU__crt_multibyte_data@@@Z 000000018002af18     libucrt:mbctype.obj
 0004:00000f24       $pdata$?setmbcp_internal@@YAHH_NQEAU__acrt_ptd@@QEAPEAU__crt_multibyte_data@@@Z 000000018002af24     libucrt:mbctype.obj
 0004:00000f30       $pdata$?update_thread_multibyte_data_internal@@YAPEAU__crt_multibyte_data@@QEAU__acrt_ptd@@QEAPEAU1@@Z 000000018002af30     libucrt:mbctype.obj
 0004:00000f3c       $pdata$__acrt_initialize_multibyte 000000018002af3c     libucrt:mbctype.obj
 0004:00000f48       $pdata$__acrt_update_thread_multibyte_data 000000018002af48     libucrt:mbctype.obj
 0004:00000f54       $pdata$_setmbcp_nolock     000000018002af54     libucrt:mbctype.obj
 0004:00000f60       $pdata$?x_ismbbtype_l@@YAHPEAU__crt_locale_pointers@@IHH@Z 000000018002af60     libucrt:ismbbyte.obj
 0004:00000f6c       $pdata$__acrt_initialize_command_line 000000018002af6c     libucrt:argv_data.obj
 0004:00000f78       $pdata$__acrt_WideCharToMultiByte 000000018002af78     libucrt:widechartomultibyte.obj
 0004:00000f84       $pdata$__dcrt_get_narrow_environment_from_os 000000018002af84     libucrt:get_environment_from_os.obj
 0004:00000f90       $pdata$_recalloc_base      000000018002af90     libucrt:recalloc.obj
 0004:00000f9c       $pdata$?try_get_function@@YAPEAXW4function_id@?A0x391cf84c@@QEBDQEBW4module_id@2@2@Z 000000018002af9c     libucrt:winapi_thunks.obj
 0004:00000fa8       $pdata$__acrt_AppPolicyGetProcessTerminationMethodInternal 000000018002afa8     libucrt:winapi_thunks.obj
 0004:00000fb4       $pdata$__acrt_AreFileApisANSI 000000018002afb4     libucrt:winapi_thunks.obj
 0004:00000fc0       $pdata$__acrt_FlsAlloc     000000018002afc0     libucrt:winapi_thunks.obj
 0004:00000fcc       $pdata$__acrt_FlsFree      000000018002afcc     libucrt:winapi_thunks.obj
 0004:00000fd8       $pdata$__acrt_FlsGetValue  000000018002afd8     libucrt:winapi_thunks.obj
 0004:00000fe4       $pdata$__acrt_FlsSetValue  000000018002afe4     libucrt:winapi_thunks.obj
 0004:00000ff0       $pdata$__acrt_InitializeCriticalSectionEx 000000018002aff0     libucrt:winapi_thunks.obj
 0004:00000ffc       $pdata$__acrt_LCMapStringEx 000000018002affc     libucrt:winapi_thunks.obj
 0004:00001008       $pdata$__acrt_LocaleNameToLCID 000000018002b008     libucrt:winapi_thunks.obj
 0004:00001014       $pdata$__acrt_initialize_winapi_thunks 000000018002b014     libucrt:winapi_thunks.obj
 0004:00001020       $pdata$__acrt_uninitialize_winapi_thunks 000000018002b020     libucrt:winapi_thunks.obj
 0004:0000102c       $pdata$__acrt_initialize_heap 000000018002b02c     libucrt:heap_handle.obj
 0004:00001038       $pdata$__acrt_execute_initializers 000000018002b038     libucrt:shared_initialization.obj
 0004:00001044       $pdata$__acrt_execute_uninitializers 000000018002b044     libucrt:shared_initialization.obj
 0004:00001050       $pdata$??$?RV<lambda_450d765d439847d4c735a33c368b5fc0>@@AEAV<lambda_44731a7d0e6d81c3e6aa82d741081786>@@V<lambda_601a2a7da3b7a96e9554ac7215c4b07c>@@@?$__crt_seh_guarded_call@P6AXH@Z@@QEAAP6AXH@Z$$QEAV<lambda_450d765d439847d4c735a33c368b5fc0>@@AEAV<lambda_44731a7d0e6d81c3e6aa82d741081786>@@$$QEAV<lambda_601a2a7da3b7a96e9554ac7215c4b07c>@@@Z 000000018002b050     libucrt:signal.obj
 0004:0000105c       $pdata$__acrt_get_sigabrt_handler 000000018002b05c     libucrt:signal.obj
 0004:00001068       $pdata$raise               000000018002b068     libucrt:signal.obj
 0004:00001074       $pdata$??$?RV<lambda_842d9ff0dc9ef11c61343bbaebe7f885>@@AEAV<lambda_c5860995281e5c4ce005b3de8f5874ee>@@V<lambda_d90129c13df834fdcbf8d2b88dafcf2d>@@@?$__crt_seh_guarded_call@X@@QEAAX$$QEAV<lambda_842d9ff0dc9ef11c61343bbaebe7f885>@@AEAV<lambda_c5860995281e5c4ce005b3de8f5874ee>@@$$QEAV<lambda_d90129c13df834fdcbf8d2b88dafcf2d>@@@Z 000000018002b074     libucrt:fflush.obj
 0004:00001080       $pdata$??$?RV<lambda_886d6c58226a84441f68b9f2b8217b83>@@AEAV<lambda_ab61a845afdef5b7c387490eaf3616ee>@@V<lambda_f7f22ab5edc0698d5f6905b0d3f44752>@@@?$__crt_seh_guarded_call@X@@QEAAX$$QEAV<lambda_886d6c58226a84441f68b9f2b8217b83>@@AEAV<lambda_ab61a845afdef5b7c387490eaf3616ee>@@$$QEAV<lambda_f7f22ab5edc0698d5f6905b0d3f44752>@@@Z 000000018002b080     libucrt:fflush.obj
 0004:0000108c       $pdata$?common_flush_all@@YAH_N@Z 000000018002b08c     libucrt:fflush.obj
 0004:00001098       $pdata$__acrt_stdio_flush_nolock 000000018002b098     libucrt:fflush.obj
 0004:000010a4       $pdata$_fflush_nolock      000000018002b0a4     libucrt:fflush.obj
 0004:000010b0       $pdata$_isleadbyte_l       000000018002b0b0     libucrt:_wctype.obj
 0004:000010bc       $pdata$__acrt_GetStringTypeA 000000018002b0bc     libucrt:getstringtypea.obj
 0004:000010c8       $pdata$__acrt_free_locale  000000018002b0c8     libucrt:locale_refcounting.obj
 0004:000010d4       $pdata$__acrt_locale_free_lc_time_if_unreferenced 000000018002b0d4     libucrt:locale_refcounting.obj
 0004:000010e0       $pdata$__acrt_release_locale_ref 000000018002b0e0     libucrt:locale_refcounting.obj
 0004:000010ec       $pdata$__acrt_update_thread_locale_data 000000018002b0ec     libucrt:locale_refcounting.obj
 0004:000010f8       $pdata$_updatetlocinfoEx_nolock 000000018002b0f8     libucrt:locale_refcounting.obj
 0004:00001104       $pdata$__acrt_locale_free_monetary 000000018002b104     libucrt:initmon.obj
 0004:00001110       $pdata$__acrt_locale_free_numeric 000000018002b110     libucrt:initnum.obj
 0004:0000111c       $pdata$?free_crt_array_internal@@YAXQEAPEBX_K@Z 000000018002b11c     libucrt:inittime.obj
 0004:00001128       $pdata$__acrt_locale_free_time 000000018002b128     libucrt:inittime.obj
 0004:00001134       $pdata$?__acrt_LCMapStringA_stat@@YAHPEAU__crt_locale_pointers@@PEB_WKPEBDHPEADHHH@Z 000000018002b134     libucrt:lcmapstringa.obj
 0004:00001140       $pdata$__acrt_LCMapStringA 000000018002b140     libucrt:lcmapstringa.obj
 0004:0000114c       $pdata$?__mbrtowc_utf8@__crt_mbstring@@YA_KPEA_WPEBD_KPEAU_Mbstatet@@@Z 000000018002b14c     libucrt:mbrtowc.obj
 0004:00001158       $pdata$?__mbsrtowcs_utf8@__crt_mbstring@@YA_KPEA_WPEAPEBD_KPEAU_Mbstatet@@@Z 000000018002b158     libucrt:mbrtowc.obj
 0004:00001164       $pdata$?__c32rtomb_utf8@__crt_mbstring@@YA_KPEAD_UPEAU_Mbstatet@@@Z 000000018002b164     libucrt:c32rtomb.obj
 0004:00001170       $pdata$__acrt_fp_strflt_to_string 000000018002b170     libucrt:_fptostr.obj
 0004:0000117c       $pdata$?divide@__crt_strtox@@YA_KAEAUbig_integer@1@AEBU21@@Z 000000018002b17c     libucrt:cfout.obj
 0004:00001188       $pdata$0$?divide@__crt_strtox@@YA_KAEAUbig_integer@1@AEBU21@@Z 000000018002b188     libucrt:cfout.obj
 0004:00001194       $pdata$1$?divide@__crt_strtox@@YA_KAEAUbig_integer@1@AEBU21@@Z 000000018002b194     libucrt:cfout.obj
 0004:000011a0       $pdata$__acrt_fltout       000000018002b1a0     libucrt:cfout.obj
 0004:000011ac       $pdata$memcpy_s            000000018002b1ac     libucrt:cfout.obj
 0004:000011b8       $pdata$_fcloseall          000000018002b1b8     libucrt:closeall.obj
 0004:000011c4       $pdata$__acrt_stdio_free_buffer_nolock 000000018002b1c4     libucrt:_freebuf.obj
 0004:000011d0       $pdata$_isatty             000000018002b1d0     libucrt:isatty.obj
 0004:000011dc       $pdata$__acrt_lowio_create_handle_array 000000018002b1dc     libucrt:osfinfo.obj
 0004:000011e8       $pdata$__acrt_lowio_destroy_handle_array 000000018002b1e8     libucrt:osfinfo.obj
 0004:000011f4       $pdata$__acrt_lowio_ensure_fh_exists 000000018002b1f4     libucrt:osfinfo.obj
 0004:00001200       $pdata$_free_osfhnd        000000018002b200     libucrt:osfinfo.obj
 0004:0000120c       $pdata$_get_osfhandle      000000018002b20c     libucrt:osfinfo.obj
 0004:00001218       $pdata$qsort               000000018002b218     libucrt:qsort.obj
 0004:00001224       $pdata$4$qsort             000000018002b224     libucrt:qsort.obj
 0004:00001230       $pdata$5$qsort             000000018002b230     libucrt:qsort.obj
 0004:0000123c       $pdata$fallbackMethod      000000018002b23c     libucrt:strpbrk.obj
 0004:00001248       $pdata$strpbrk             000000018002b248     libucrt:strpbrk.obj
 0004:00001254       $pdata$_mbsdec_l           000000018002b254     libucrt:mbsdec.obj
 0004:00001260       $pdata$?initialize_multibyte@@YAHXZ 000000018002b260     libucrt:multibyte_initializer.obj
 0004:0000126c       $pdata$_msize_base         000000018002b26c     libucrt:msize.obj
 0004:00001278       $pdata$_realloc_base       000000018002b278     libucrt:realloc_base.obj
 0004:00001284       $pdata$?GetTableIndexFromLocaleName@@YAHPEB_W@Z 000000018002b284     libucrt:lcidtoname_downlevel.obj
 0004:00001290       $pdata$__acrt_DownlevelLocaleNameToLCID 000000018002b290     libucrt:lcidtoname_downlevel.obj
 0004:0000129c       $pdata$??$?RV<lambda_a37b2b86f63e897a80ea819b0eb08c01>@@AEAV<lambda_38ce7e780aa69e748d6df282ebc68efe>@@V<lambda_99fb1378e971ab6e7edea83e3a7a83a2>@@@?$__crt_seh_guarded_call@H@@QEAAH$$QEAV<lambda_a37b2b86f63e897a80ea819b0eb08c01>@@AEAV<lambda_38ce7e780aa69e748d6df282ebc68efe>@@$$QEAV<lambda_99fb1378e971ab6e7edea83e3a7a83a2>@@@Z 000000018002b29c     libucrt:commit.obj
 0004:000012a8       $pdata$_commit             000000018002b2a8     libucrt:commit.obj
 0004:000012b4       $pdata$?write_double_translated_ansi_nolock@@YA?AUwrite_result@?A0x17268360@@HQEBDI@Z 000000018002b2b4     libucrt:write.obj
 0004:000012c0       $pdata$?write_text_ansi_nolock@@YA?AUwrite_result@?A0x17268360@@HQEBDI@Z 000000018002b2c0     libucrt:write.obj
 0004:000012cc       $pdata$?write_text_utf16le_nolock@@YA?AUwrite_result@?A0x17268360@@HQEBDI@Z 000000018002b2cc     libucrt:write.obj
 0004:000012d8       $pdata$?write_text_utf8_nolock@@YA?AUwrite_result@?A0x17268360@@HQEBDI@Z 000000018002b2d8     libucrt:write.obj
 0004:000012e4       $pdata$_write              000000018002b2e4     libucrt:write.obj
 0004:000012f0       $pdata$_write_nolock       000000018002b2f0     libucrt:write.obj
 0004:000012fc       $pdata$?__mbrtoc32_utf8@__crt_mbstring@@YA_KPEA_UPEBD_KPEAU_Mbstatet@@@Z 000000018002b2fc     libucrt:mbrtoc32.obj
 0004:00001308       $pdata$fegetenv            000000018002b308     libucrt:fegetenv.obj
 0004:00001314       $pdata$fesetenv            000000018002b314     libucrt:fesetenv.obj
 0004:00001320       $pdata$feholdexcept        000000018002b320     libucrt:feholdexcept.obj
 0004:00001338       $pdata$??$common_lseek_nolock@_J@@YA_JH_JH@Z 000000018002b338     libucrt:lseek.obj
 0004:00001344       $pdata$_fclose_nolock      000000018002b344     libucrt:fclose.obj
 0004:00001350       $pdata$fclose              000000018002b350     libucrt:fclose.obj
 0004:0000135c       $pdata$_putwch_nolock      000000018002b35c     libucrt:putwch.obj
 0004:00001368       $pdata$__acrt_fenv_set_control 000000018002b368     libucrt:_fenvutils.obj
 0004:00001374       $pdata$_clearfp            000000018002b374     libucrt:ieee.obj
 0004:00001380       $pdata$_call_matherr       000000018002b380     libucrt:libm_error.obj
 0004:0000138c       $pdata$_exception_enabled  000000018002b38c     libucrt:libm_error.obj
 0004:00001398       $pdata$_handle_error       000000018002b398     libucrt:libm_error.obj
 0004:000013a4       $pdata$__acrt_initialize_fma3 000000018002b3a4     libucrt:fma3_available.obj
 0004:000013b0       $pdata$_log10_special      000000018002b3b0     libucrt:log_special.obj
 0004:000013bc       $pdata$_log_special_common 000000018002b3bc     libucrt:log_special.obj
 0004:000013c8       $pdata$??$?RV<lambda_751a882b2c74d4b022dec766aa51a29a>@@AEAV<lambda_628dfdc04ba53c8bfc02c9951375f3f5>@@V<lambda_f6c7be5f7998530c34de24c7437d6b54>@@@?$__crt_seh_guarded_call@H@@QEAAH$$QEAV<lambda_751a882b2c74d4b022dec766aa51a29a>@@AEAV<lambda_628dfdc04ba53c8bfc02c9951375f3f5>@@$$QEAV<lambda_f6c7be5f7998530c34de24c7437d6b54>@@@Z 000000018002b3c8     libucrt:close.obj
 0004:000013d4       $pdata$_close              000000018002b3d4     libucrt:close.obj
 0004:000013e0       $pdata$_close_nolock       000000018002b3e0     libucrt:close.obj
 0004:000013ec       $pdata$__dcrt_lowio_ensure_console_output_initialized 000000018002b3ec     libucrt:initcon.obj
 0004:000013f8       $pdata$__dcrt_terminate_console_output 000000018002b3f8     libucrt:initcon.obj
 0004:00001404       $pdata$__dcrt_write_console 000000018002b404     libucrt:initcon.obj
 0004:0000141c       $pdata$_raise_exc          000000018002b41c     libucrt:fpexcept.obj
 0004:00001428       $pdata$_raise_exc_ex       000000018002b428     libucrt:fpexcept.obj
 0004:00001434       $pdata$_set_errno_from_matherr 000000018002b434     libucrt:fpexcept.obj
 0004:00001440       $pdata$_clrfp              000000018002b440     libucrt:fpctrl.obj
 0004:0000144c       $pdata$_ctrlfp             000000018002b44c     libucrt:fpctrl.obj
 0004:00001458       $pdata$_set_statfp         000000018002b458     libucrt:fpctrl.obj
 0004:00001464       $pdata$_statfp             000000018002b464     libucrt:fpctrl.obj
 0004:00001470       $pdata$?DloadAcquireSectionWriteAccess@@YAXXZ 000000018002b470     DelayImp:delayhlp.obj
 0004:0000147c       $pdata$?DloadGetSRWLockFunctionPointers@@YAEXZ 000000018002b47c     DelayImp:delayhlp.obj
 0004:00001488       $pdata$?DloadMakePermanentImageCommit@@YAXPEAX_K@Z 000000018002b488     DelayImp:delayhlp.obj
 0004:00001494       $pdata$?DloadObtainSection@@YAPEAXPEAK0@Z 000000018002b494     DelayImp:delayhlp.obj
 0004:000014a0       $pdata$?DloadProtectSection@@YAXKPEAK@Z 000000018002b4a0     DelayImp:delayhlp.obj
 0004:000014ac       $pdata$?DloadReleaseSectionWriteAccess@@YAXXZ 000000018002b4ac     DelayImp:delayhlp.obj
 0004:000014b8       $pdata$__delayLoadHelper2  000000018002b4b8     DelayImp:delayhlp.obj
 0004:000014c4       $pdata$__GSHandlerCheck    000000018002b4c4     LIBCMT:gshandler.obj
 0004:000014d0       $pdata$__GSHandlerCheckCommon 000000018002b4d0     LIBCMT:gshandler.obj
 0004:000014dc       $pdata$_IsNonwritableInCurrentImage 000000018002b4dc     LIBCMT:pesect.obj
 0004:00001500       $pdata$strrchr             000000018002b500     libvcruntime:strrchr.obj
 0004:0000150c       $pdata$__GSHandlerCheck_EH 000000018002b50c     LIBCMT:gshandlereh.obj
 0004:00001524       $pdata$?dtor$1@?0???BString@Napi@@QEBA?AV?$basic_string@DU?$char_traits@D@std@@V?$allocator@D@2@@std@@XZ@4HA 000000018002b524     binding.obj
 0004:00001530       $pdata$?catch$6@?0??Message@Error@Napi@@QEBAAEBV?$basic_string@DU?$char_traits@D@std@@V?$allocator@D@2@@std@@XZ@4HA 000000018002b530     binding.obj
 0004:0000153c       $pdata$?catch$0@?0???$WrapCallback@V<lambda_8c7377a71108815b2eee34f099f4cb99>@@@details@Napi@@YAPEAUnapi_value__@@V<lambda_8c7377a71108815b2eee34f099f4cb99>@@@Z@4HA 000000018002b53c     binding.obj
 0004:00001548       $pdata$?catch$1@?0???$WrapCallback@V<lambda_03ec0e3e2a4187754bc7c97d0c48b30a>@@@details@Napi@@YAPEAUnapi_value__@@V<lambda_03ec0e3e2a4187754bc7c97d0c48b30a>@@@Z@4HA 000000018002b548     binding.obj
 0004:00001554       $pdata$?catch$1@?0???$WrapCallback@V<lambda_4b130013be4a466940e6fe08d32cda83>@@@details@Napi@@YAPEAUnapi_value__@@V<lambda_4b130013be4a466940e6fe08d32cda83>@@@Z@4HA 000000018002b554     binding.obj
 0004:00001560       $pdata$?fin$0@?0??dllmain_crt_process_attach@@YAHQEAUHINSTANCE__@@QEAX@Z@4HA 000000018002b560     LIBCMT:dll_dllmain.obj
 0004:0000156c       $pdata$?fin$0@?0??dllmain_crt_process_detach@@YAH_N@Z@4HA 000000018002b56c     LIBCMT:dll_dllmain.obj
 0004:00001578       $pdata$?filt$0@?0??dllmain_dispatch@@YAHQEAUHINSTANCE__@@KQEAX@Z@4HA 000000018002b578     LIBCMT:dll_dllmain.obj
 0004:00001584       $pdata$__scrt_is_nonwritable_in_current_image$filt$0 000000018002b584     LIBCMT:utility.obj
 0004:00001590       $pdata$?filt$0@?0???$_CallSETranslator@V__FrameHandler3@@@@YAHPEAUEHExceptionRecord@@PEA_KPEAU_CONTEXT@@PEAU_xDISPATCHER_CONTEXT@@PEBU_s_FuncInfo@@K1@Z@4HA 000000018002b590     libvcruntime:risctrnsctrl.obj
 0004:0000159c       $pdata$__DestructExceptionObject$filt$0 000000018002b59c     libvcruntime:ehhelpers.obj
 0004:000015a8       $pdata$?filt$0@?0??CxxCallCatchBlock@__FrameHandler3@@SAPEAXPEAU_EXCEPTION_RECORD@@@Z@4HA 000000018002b5a8     libvcruntime:frame.obj
 0004:000015b4       $pdata$?fin$1@?0??CxxCallCatchBlock@__FrameHandler3@@SAPEAXPEAU_EXCEPTION_RECORD@@@Z@4HA 000000018002b5b4     libvcruntime:frame.obj
 0004:000015c0       $pdata$?filt$0@?0??FrameUnwindToState@__FrameHandler3@@SAXPEA_KPEAU_xDISPATCHER_CONTEXT@@PEBU_s_FuncInfo@@H@Z@4HA 000000018002b5c0     libvcruntime:frame.obj
 0004:000015cc       $pdata$?fin$1@?0??FrameUnwindToState@__FrameHandler3@@SAXPEA_KPEAU_xDISPATCHER_CONTEXT@@PEBU_s_FuncInfo@@H@Z@4HA 000000018002b5cc     libvcruntime:frame.obj
 0004:000015d8       $pdata$_query_new_handler$fin$0 000000018002b5d8     libucrt:new_handler.obj
 0004:000015e4       $pdata$?fin$0@?0???$?RV<lambda_f2e299630e499de9f9a165e60fcd3db5>@@AEAV<lambda_2ae9d31cdba2644fcbeaf08da7c24588>@@V<lambda_40d01ff24d0e7b3814fdbdcee8eab3c7>@@@?$__crt_seh_guarded_call@X@@QEAAX$$QEAV<lambda_f2e299630e499de9f9a165e60fcd3db5>@@AEAV<lambda_2ae9d31cdba2644fcbeaf08da7c24588>@@$$QEAV<lambda_40d01ff24d0e7b3814fdbdcee8eab3c7>@@@Z@4HA 000000018002b5e4     libucrt:per_thread_data.obj
 0004:000015e4       $pdata$?fin$0@?0???$?RV<lambda_2d41944a1d46af3157314b8a01080d33>@@AEAV<lambda_8f455de75cd7d7f24b4096f044d8b9e6>@@V<lambda_aa500f224e6afead328df44964fe2772>@@@?$__crt_seh_guarded_call@X@@QEAAX$$QEAV<lambda_2d41944a1d46af3157314b8a01080d33>@@AEAV<lambda_8f455de75cd7d7f24b4096f044d8b9e6>@@$$QEAV<lambda_aa500f224e6afead328df44964fe2772>@@@Z@4HA 000000018002b5e4     libucrt:per_thread_data.obj
 0004:000015e4       $pdata$?fin$0@?0???$?RV<lambda_aa87e3671a710a21b5dc78c0bdf72e11>@@AEAV<lambda_92619d2358a28f41a33ba319515a20b9>@@V<lambda_6992ecaafeb10aed2b74cb1fae11a551>@@@?$__crt_seh_guarded_call@X@@QEAAX$$QEAV<lambda_aa87e3671a710a21b5dc78c0bdf72e11>@@AEAV<lambda_92619d2358a28f41a33ba319515a20b9>@@$$QEAV<lambda_6992ecaafeb10aed2b74cb1fae11a551>@@@Z@4HA 000000018002b5e4     libucrt:per_thread_data.obj
 0004:000015e4       $pdata$?fin$0@?0???$?RV<lambda_efdfa57d1f175319df784efa44bb7b81>@@AEAV<lambda_5f0a4c1567f8adc6734073e5d1e1b35c>@@V<lambda_2e8a7d3640ea6ccb4c2413664c2db6fd>@@@?$__crt_seh_guarded_call@X@@QEAAX$$QEAV<lambda_efdfa57d1f175319df784efa44bb7b81>@@AEAV<lambda_5f0a4c1567f8adc6734073e5d1e1b35c>@@$$QEAV<lambda_2e8a7d3640ea6ccb4c2413664c2db6fd>@@@Z@4HA 000000018002b5e4     libucrt:mbctype.obj
 0004:000015e4       $pdata$?fin$0@?0???$?RV<lambda_450d765d439847d4c735a33c368b5fc0>@@AEAV<lambda_44731a7d0e6d81c3e6aa82d741081786>@@V<lambda_601a2a7da3b7a96e9554ac7215c4b07c>@@@?$__crt_seh_guarded_call@P6AXH@Z@@QEAAP6AXH@Z$$QEAV<lambda_450d765d439847d4c735a33c368b5fc0>@@AEAV<lambda_44731a7d0e6d81c3e6aa82d741081786>@@$$QEAV<lambda_601a2a7da3b7a96e9554ac7215c4b07c>@@@Z@4HA 000000018002b5e4     libucrt:signal.obj
 0004:000015e4       $pdata$?fin$0@?0???$?RV<lambda_7777bce6b2f8c936911f934f8298dc43>@@AEAV<lambda_f03950bc5685219e0bcd2087efbe011e>@@V<lambda_3883c3dff614d5e0c5f61bb1ac94921c>@@@?$__crt_seh_guarded_call@H@@QEAAH$$QEAV<lambda_7777bce6b2f8c936911f934f8298dc43>@@AEAV<lambda_f03950bc5685219e0bcd2087efbe011e>@@$$QEAV<lambda_3883c3dff614d5e0c5f61bb1ac94921c>@@@Z@4HA 000000018002b5e4     libucrt:onexit.obj
 0004:000015e4       $pdata$?fin$0@?0???$?RV<lambda_d80eeec6fff315bfe5c115232f3240e3>@@AEAV<lambda_6e4b09c48022b2350581041d5f6b0c4c>@@V<lambda_2358e3775559c9db80273638284d5e45>@@@?$__crt_seh_guarded_call@X@@QEAAX$$QEAV<lambda_d80eeec6fff315bfe5c115232f3240e3>@@AEAV<lambda_6e4b09c48022b2350581041d5f6b0c4c>@@$$QEAV<lambda_2358e3775559c9db80273638284d5e45>@@@Z@4HA 000000018002b5e4     libucrt:exit.obj
 0004:000015e4       $pdata$?fin$0@?0???$?RV<lambda_0ae27a3a962d80f24befdcbee591983d>@@AEAV<lambda_8d0ee55de4b1038c4002e0adecdf1839>@@V<lambda_dc504788e8f1664fe9b84e20bfb512f2>@@@?$__crt_seh_guarded_call@X@@QEAAX$$QEAV<lambda_0ae27a3a962d80f24befdcbee591983d>@@AEAV<lambda_8d0ee55de4b1038c4002e0adecdf1839>@@$$QEAV<lambda_dc504788e8f1664fe9b84e20bfb512f2>@@@Z@4HA 000000018002b5e4     libucrt:per_thread_data.obj
 0004:000015f0       $pdata$?filt$0@?0???R<lambda_6e4b09c48022b2350581041d5f6b0c4c>@@QEBA@XZ@4HA 000000018002b5f0     libucrt:exit.obj
 0004:000015fc       $pdata$?fin$0@?0???$?RV<lambda_410d79af7f07d98d83a3f525b3859a53>@@AEAV<lambda_3e16ef9562a7dcce91392c22ab16ea36>@@V<lambda_38119f0e861e05405d8a144b9b982f0a>@@@?$__crt_seh_guarded_call@X@@QEAAX$$QEAV<lambda_410d79af7f07d98d83a3f525b3859a53>@@AEAV<lambda_3e16ef9562a7dcce91392c22ab16ea36>@@$$QEAV<lambda_38119f0e861e05405d8a144b9b982f0a>@@@Z@4HA 000000018002b5fc     libucrt:wsetlocale.obj
 0004:00001608       $pdata$__acrt_lowio_ensure_fh_exists$fin$0 000000018002b608     libucrt:osfinfo.obj
 0004:00001608       $pdata$__acrt_initialize_lowio$fin$0 000000018002b608     libucrt:ioinit.obj
 0004:00001614       $pdata$?fin$0@?0??update_thread_multibyte_data_internal@@YAPEAU__crt_multibyte_data@@QEAU__acrt_ptd@@QEAPEAU1@@Z@4HA 000000018002b614     libucrt:mbctype.obj
 0004:00001620       $pdata$raise$fin$0         000000018002b620     libucrt:signal.obj
 0004:0000162c       $pdata$?fin$0@?0???$?RV<lambda_842d9ff0dc9ef11c61343bbaebe7f885>@@AEAV<lambda_c5860995281e5c4ce005b3de8f5874ee>@@V<lambda_d90129c13df834fdcbf8d2b88dafcf2d>@@@?$__crt_seh_guarded_call@X@@QEAAX$$QEAV<lambda_842d9ff0dc9ef11c61343bbaebe7f885>@@AEAV<lambda_c5860995281e5c4ce005b3de8f5874ee>@@$$QEAV<lambda_d90129c13df834fdcbf8d2b88dafcf2d>@@@Z@4HA 000000018002b62c     libucrt:fflush.obj
 0004:00001638       $pdata$?fin$0@?0???$?RV<lambda_886d6c58226a84441f68b9f2b8217b83>@@AEAV<lambda_ab61a845afdef5b7c387490eaf3616ee>@@V<lambda_f7f22ab5edc0698d5f6905b0d3f44752>@@@?$__crt_seh_guarded_call@X@@QEAAX$$QEAV<lambda_886d6c58226a84441f68b9f2b8217b83>@@AEAV<lambda_ab61a845afdef5b7c387490eaf3616ee>@@$$QEAV<lambda_f7f22ab5edc0698d5f6905b0d3f44752>@@@Z@4HA 000000018002b638     libucrt:fflush.obj
 0004:00001644       $pdata$__acrt_update_thread_locale_data$fin$0 000000018002b644     libucrt:locale_refcounting.obj
 0004:00001650       $pdata$_fcloseall$fin$0    000000018002b650     libucrt:closeall.obj
 0004:0000165c       $pdata$?fin$0@?0???$?RV<lambda_751a882b2c74d4b022dec766aa51a29a>@@AEAV<lambda_628dfdc04ba53c8bfc02c9951375f3f5>@@V<lambda_f6c7be5f7998530c34de24c7437d6b54>@@@?$__crt_seh_guarded_call@H@@QEAAH$$QEAV<lambda_751a882b2c74d4b022dec766aa51a29a>@@AEAV<lambda_628dfdc04ba53c8bfc02c9951375f3f5>@@$$QEAV<lambda_f6c7be5f7998530c34de24c7437d6b54>@@@Z@4HA 000000018002b65c     libucrt:close.obj
 0004:0000165c       $pdata$?fin$0@?0???$?RV<lambda_a37b2b86f63e897a80ea819b0eb08c01>@@AEAV<lambda_38ce7e780aa69e748d6df282ebc68efe>@@V<lambda_99fb1378e971ab6e7edea83e3a7a83a2>@@@?$__crt_seh_guarded_call@H@@QEAAH$$QEAV<lambda_a37b2b86f63e897a80ea819b0eb08c01>@@AEAV<lambda_38ce7e780aa69e748d6df282ebc68efe>@@$$QEAV<lambda_99fb1378e971ab6e7edea83e3a7a83a2>@@@Z@4HA 000000018002b65c     libucrt:commit.obj
 0004:00001668       $pdata$_write$fin$0        000000018002b668     libucrt:write.obj
 0004:00001674       $pdata$fclose$fin$0        000000018002b674     libucrt:fclose.obj
 0004:00001680       $pdata$_ctrlfp$filt$0      000000018002b680     libucrt:fpctrl.obj
 0004:0000168c       $pdata$_IsNonwritableInCurrentImage$filt$0 000000018002b68c     LIBCMT:pesect.obj
 0005:00000060       $R000000                   000000018002c060     * linker generated manifest res *

 Exports

  ordinal    name

        1    _register_binding_
